gpasm-0.13.4 beta               /home/this/mios/trunk/modules/mios_wrapper/mios_wrapper.asm10-29-2008  12:57:15         PAGE  1


LOC  OBJECT CODE     LINE SOURCE TEXT
  VALUE
 
               00001 ; $Id: mios_wrapper.asm 63 2008-01-31 20:44:17Z tk $
               00002 ;
               00003 ; This is the MIOS wrapper for SDCC (qualified for v2.5.0 and v2.6.0)
               00004 ;
               00005 ; the upper boundary of the stacks are defined here 
               00006 ; customize the values for your needs
               00007 #ifndef STACK_HEAD
               00008 #define STACK_HEAD 0x37f
               00009 #endif
               00010 
               00011 #ifndef STACK_IRQ_HEAD
               00012 #define STACK_IRQ_HEAD 0x33f
               00013 #endif
               00014 ;
               00015 ; ==========================================================================
               00016 ;
               00017 ;  Copyright 1998-2006 Thorsten Klose (tk@midibox.org)
               00018 ;  Licensed for personal non-commercial use only.
               00019 ;  All other rights reserved.
               00020 ; 
               00021 ; ==========================================================================
               00022 
               00023 ;; ---[ MIOS header file ]---
               00024 #include <mios.h>
               00001 ; $Id: mios.h 387 2008-07-14 20:59:15Z tk $
               00002 ;
               00003 ; MIOS Definitions file
               00004 ;
               00005 ; ==========================================================================
               00006 ;
               00007 ;  Copyright 1998-2008 Thorsten Klose (tk@midibox.org)
               00008 ;  Licensed for personal non-commercial use only.
               00009 ;  All other rights reserved.
               00010 ; 
               00011 ; ==========================================================================
               00012 
               00013 
               00014 ;; ==========================================================================
               00015 ;;  Include basic defines which characterize the derivative to
               00016 ;;  simplify dependencies within MIOS source code
               00017 ;; ==========================================================================
               00018 #include <hw_flags.h>
               00001 
               00002 #ifndef _HW_FLAGS_H
               00003 #define _HW_FLAGS_H
               00004 
               00005 #ifdef __18F452
               00006 #define PIC_DERIVATIVE_CODE_SIZE        0x08000
               00007 #define PIC_DERIVATIVE_RAM_SIZE         0x600
               00008 #define PIC_DERIVATIVE_EEPROM_SIZE      0x100
               00009 #define PIC_DERIVATIVE_IRQ_WORKAROUND   0
               00010 #define PIC_DERIVATIVE_NEW_ADC          0
               00011 #define PIC_DERIVATIVE_CMCON_INIT       0
               00012 #define PIC_DERIVATIVE_T08BIT_INVERTED  0
gpasm-0.13.4 beta               /home/this/mios/trunk/modules/mios_wrapper/mios_wrapper.asm10-29-2008  12:57:15         PAGE  2


LOC  OBJECT CODE     LINE SOURCE TEXT
  VALUE
 
               00013 #define PIC_DERIVATIVE_SET_LCD_4BIT     0
               00014 #endif
               00015 
               00016 #ifdef __18F4620
               00017 #define PIC_DERIVATIVE_CODE_SIZE        0x10000
               00018 #define PIC_DERIVATIVE_RAM_SIZE         0xf80
               00019 #define PIC_DERIVATIVE_EEPROM_SIZE      0x400
               00020 #define PIC_DERIVATIVE_IRQ_WORKAROUND   1
               00021 #define PIC_DERIVATIVE_NEW_ADC          1
               00022 #define PIC_DERIVATIVE_CMCON_INIT       1
               00023 #define PIC_DERIVATIVE_T08BIT_INVERTED  1
               00024 #define PIC_DERIVATIVE_SET_LCD_4BIT     0
               00025 #endif
               00026         
               00027 #ifdef __18F4520
               00028 #define PIC_DERIVATIVE_CODE_SIZE        0x08000
               00029 #define PIC_DERIVATIVE_RAM_SIZE         0x600
               00030 #define PIC_DERIVATIVE_EEPROM_SIZE      0x100
               00031 #define PIC_DERIVATIVE_IRQ_WORKAROUND   1
               00032 #define PIC_DERIVATIVE_NEW_ADC          1
               00033 #define PIC_DERIVATIVE_CMCON_INIT       1
               00034 #define PIC_DERIVATIVE_T08BIT_INVERTED  0
               00035 #define PIC_DERIVATIVE_SET_LCD_4BIT     0
               00036 #endif
               00037 
               00038 #ifdef __18F4682
               00039 #define PIC_DERIVATIVE_CODE_SIZE        0x14000
               00040 #define PIC_DERIVATIVE_RAM_SIZE         0xd00
               00041 #define PIC_DERIVATIVE_EEPROM_SIZE      0x400
               00042 #define PIC_DERIVATIVE_IRQ_WORKAROUND   0
               00043 #define PIC_DERIVATIVE_NEW_ADC          1
               00044 #define PIC_DERIVATIVE_CMCON_INIT       1
               00045 #define PIC_DERIVATIVE_T08BIT_INVERTED  0
               00046 #define PIC_DERIVATIVE_SET_LCD_4BIT     1
               00047 #endif
               00048 
               00049 #ifdef __18F4685
               00050 #define PIC_DERIVATIVE_CODE_SIZE        0x18000
               00051 #define PIC_DERIVATIVE_RAM_SIZE         0xd00
               00052 #define PIC_DERIVATIVE_EEPROM_SIZE      0x400
               00053 #define PIC_DERIVATIVE_IRQ_WORKAROUND   0
               00054 #define PIC_DERIVATIVE_NEW_ADC          1
               00055 #define PIC_DERIVATIVE_CMCON_INIT       1
               00056 #define PIC_DERIVATIVE_T08BIT_INVERTED  0
               00057 #define PIC_DERIVATIVE_SET_LCD_4BIT     1
               00058 #endif
               00059 
               00060 #endif
               00019  
               00020 ;; ==========================================================================
               00021 ;;  Assembler directives & device specific include file
               00022 ;;
               00023 ;;  Natively supported devices are listed here.
               00024 ;; ==========================================================================
gpasm-0.13.4 beta               /home/this/mios/trunk/modules/mios_wrapper/mios_wrapper.asm10-29-2008  12:57:15         PAGE  3


LOC  OBJECT CODE     LINE SOURCE TEXT
  VALUE
 
               00025 
               00026 #ifdef __18F452
               00027         LIST R=DEC
               00028 #include <p18f452.inc>
               00001         LIST
               00002 ; P18F452.INC  Standard Header File, Version 1.4   Microchip Technology, Inc.
               00983         LIST
               00029 #endif
               00030 
               00031 #ifdef __18F4620
               00032         LIST R=DEC
               00033 #include <p18f4620.inc>
               00034 #endif
               00035         
               00036 #ifdef __18F4520
               00037         LIST R=DEC
               00038 #include <p18f4520.inc>
               00039 #endif
               00040 
               00041 #ifdef __18F4682
               00042         LIST R=DEC
               00043 #include <p18f4682.inc>
               00044 #endif
               00045 
               00046 #ifdef __18F4685
               00047         LIST R=DEC
               00048 #include <p18f4685.inc>
               00049 #endif
               00050 
               00051 
               00052 ;; ==========================================================================
               00053 ;;  General constants
               00054 ;; ==========================================================================
               00055 
               00056 ;; used by MIOS_MIDI_Interface*
  00000000     00057 MIOS_MIDI_INTERFACE_COMMON      EQU     0x00
  00000001     00058 MIOS_MIDI_INTERFACE_TO_HOST     EQU     0x01
               00059 
               00060 ;; used by MIOS_MIDI_Merger*
  00000000     00061 MIOS_MIDI_MERGER_DISABLED       EQU     0x00
  00000001     00062 MIOS_MIDI_MERGER_ENABLED        EQU     0x01
  00000002     00063 MIOS_MIDI_MERGER_MBLINK_EP      EQU     0x02
  00000003     00064 MIOS_MIDI_MERGER_MBLINK_FP      EQU     0x03
               00065 
               00066 ;; used by MIOS_ENC_PIN_TABLE
  00000000     00067 MIOS_ENC_MODE_NON_DETENTED      EQU     0x00
  00000080     00068 MIOS_ENC_MODE_DETENTED          EQU     0x80
  00000080     00069 MIOS_ENC_MODE_DETENTED1         EQU     0x80
  00000081     00070 MIOS_ENC_MODE_DETENTED2         EQU     0x81
  00000082     00071 MIOS_ENC_MODE_DETENTED3         EQU     0x82
               00072 
               00073 ;; used by MIOS_ENC_Speed*
  00000000     00074 MIOS_ENC_SPEED_SLOW             EQU     0
  00000001     00075 MIOS_ENC_SPEED_NORMAL           EQU     1
gpasm-0.13.4 beta               /home/this/mios/trunk/modules/mios_wrapper/mios_wrapper.asm10-29-2008  12:57:15         PAGE  4


LOC  OBJECT CODE     LINE SOURCE TEXT
  VALUE
 
  00000002     00076 MIOS_ENC_SPEED_FAST             EQU     2
               00077 
               00078 ;; used by MIOS_LCD_Type*
  00000000     00079 MIOS_LCD_TYPE_CLCD              EQU     0x00
  00000001     00080 MIOS_LCD_TYPE_GLCD0             EQU     0x01
  00000002     00081 MIOS_LCD_TYPE_GLCD1             EQU     0x02
  00000003     00082 MIOS_LCD_TYPE_GLCD2             EQU     0x03
  00000004     00083 MIOS_LCD_TYPE_GLCD3             EQU     0x04
  00000005     00084 MIOS_LCD_TYPE_GLCD4             EQU     0x05
  00000006     00085 MIOS_LCD_TYPE_MLCD              EQU     0x06
  00000007     00086 MIOS_LCD_TYPE_GLCD_CUSTOM       EQU     0x07
               00087 
               00088 ;; location of default 5x8 font for graphical displays
  00007CFC     00089 MIOS_GLCD_FONT                  EQU     0x7cfc
               00090 
               00091 ;; general config flags (never overwrite this flags directly!!!)
  00000000     00092 MIOS_BOX_CFG0_LCD_TYPE0         EQU 0   ; selects LCD type, bit 0
  00000001     00093 MIOS_BOX_CFG0_LCD_TYPE1         EQU 1   ; selects LCD type, bit 1
  00000002     00094 MIOS_BOX_CFG0_LCD_TYPE2         EQU 2   ; selects LCD type, bit 2
  00000003     00095 MIOS_BOX_CFG0_USE_GLCD          EQU 3   ; if 1, graphical LCD is connected
  00000004     00096 MIOS_BOX_CFG0_MERGER            EQU 4   ; if 1, MIDI merger is enabled
  00000005     00097 MIOS_BOX_CFG0_MBLINK            EQU 5   ; if 1, MIDIbox Link is enabled
  00000006     00098 MIOS_BOX_CFG0_TO_HOST           EQU 6   ; if 1, MIDI interface will run with 38400 baud instead of 31250
  00000007     00099 MIOS_BOX_CFG0_20MHz             EQU 7   ; if 1, it is assumed that box is running with 20 MHz, else with 40 MHz
               00100 
  00000000     00101 MIOS_BOX_CFG1_BS_A0             EQU 0   ; A0 of BankStick (never change the bit position)
  00000001     00102 MIOS_BOX_CFG1_BS_A1             EQU 1   ; A1 of BankStick (never change the bit position)
  00000002     00103 MIOS_BOX_CFG1_BS_A2             EQU 2   ; A2 of BankStick (never change the bit position)
  00000003     00104 MIOS_BOX_CFG1_BS_DIS_VERIFY     EQU 3   ; if 1, writes to the BankStick will not be verified
  00000004     00105 MIOS_BOX_CFG1_IIC_STRETCH_CLK   EQU 4   ; if 1, IIC clock stretching enabled
               00106 
               00107 ;; general status flags (never overwrite this flags directly!!!)
  00000000     00108 MIOS_BOX_STAT_BS_AVAILABLE      EQU 0   ; if 1, BankStick is available
  00000001     00109 MIOS_BOX_STAT_MBLINK_TUNNEL_PASS EQU 1  ; if 1, a MBLinked event will be tunnled
  00000002     00110 MIOS_BOX_STAT_SUSPEND_ALL       EQU 2   ; if 1, all system and user tasks are suspended
  00000003     00111 MIOS_BOX_STAT_SUSPEND_USER      EQU 3   ; if 1, all user tasks are suspended
  00000004     00112 MIOS_BOX_STAT_AUTOREPEAT        EQU 4   ; if 1, start the auto-repeat handler
  00000005     00113 MIOS_BOX_STAT_MLCD_TRANSFER     EQU 5   ; if 1, a transfer to the MLCD has been started
  00000006     00114 MIOS_BOX_STAT_FERR              EQU 6   ; if 1, a frame error happened during MIDI receive
               00115 
               00116 ;; ==========================================================================
               00117 ;;  MIOS Special Function Registers
               00118 ;; ==========================================================================
               00119 
  00000000     00120 MIOS_BOX_CFG0   EQU     0x000
  00000001     00121 MIOS_BOX_CFG1   EQU     0x001
  00000002     00122 MIOS_BOX_STAT   EQU     0x002
  00000003     00123 MIOS_PARAMETER1 EQU     0x003
  00000004     00124 MIOS_PARAMETER2 EQU     0x004
  00000005     00125 MIOS_PARAMETER3 EQU     0x005
               00126 
               00127 ;; ==========================================================================
               00128 ;;  temporary registers for main programs
               00129 ;; ==========================================================================
gpasm-0.13.4 beta               /home/this/mios/trunk/modules/mios_wrapper/mios_wrapper.asm10-29-2008  12:57:15         PAGE  5


LOC  OBJECT CODE     LINE SOURCE TEXT
  VALUE
 
  00000006     00130 TMP1            EQU     0x006
  00000007     00131 TMP2            EQU     0x007
  00000008     00132 TMP3            EQU     0x008
  00000009     00133 TMP4            EQU     0x009
  0000000A     00134 TMP5            EQU     0x00a
               00135 
               00136 ;; ==========================================================================
               00137 ;;  temporary registers for IRQs
               00138 ;; ==========================================================================
  0000000B     00139 IRQ_TMP1        EQU     0x00b
  0000000C     00140 IRQ_TMP2        EQU     0x00c
  0000000D     00141 IRQ_TMP3        EQU     0x00d
  0000000E     00142 IRQ_TMP4        EQU     0x00e
  0000000F     00143 IRQ_TMP5        EQU     0x00f
               00144 
               00145 ;; ==========================================================================
               00146 ;;  free memory space for user application:
               00147 ;; ==========================================================================
               00148         ;; 0x010-0x37f
               00149 
               00150 ;; ==========================================================================
               00151 ;;  MIOS System Registers -- not defined here -- 
               00152 ;;  never use these memory locations!
               00153 ;; ==========================================================================
               00154         ;; 0x380-0x6ff
               00155 
               00156 ;; ==========================================================================
               00157 ;;  MIOS System Registers for custom LCD driver
               00158 ;; ==========================================================================
  00000570     00159 MIOS_GLCD_BUFFER        EQU     0x570   ; note: the buffer must be located at ...0-...7
  00000578     00160 MIOS_LCD_OPTION1        EQU     0x578   ; contains the first LCD option given by MIOS_LCD_TypeSet
  00000579     00161 MIOS_LCD_OPTION2        EQU     0x579   ; contains the second LCD option given by MIOS_LCD_TypeSet
  0000057A     00162 MIOS_LCD_CURSOR_POS     EQU     0x57a   ; the current cursor pos of characters (GLCD: multiplied by width)
  0000057B     00163 MIOS_GLCD_GCURSOR_X     EQU     0x57b   ; for GLCDs: the current X position of graphical cursor
  0000057C     00164 MIOS_GLCD_GCURSOR_Y     EQU     0x57c   ; for GLCDs: the current Y position of graphical cursor
  0000057D     00165 MIOS_GLCD_FONT_WIDTH    EQU     0x57d   ; for GLCDs: the fontwidth given by MIOS_GLCD_FontInit
  0000057E     00166 MIOS_GLCD_FONT_HEIGHT   EQU     0x57e   ; for GLCDs: the fontheight given by MIOS_GLCD_FontInit
  0000057F     00167 MIOS_GLCD_FONT_X0       EQU     0x57f   ; for GLCDs: the first byte within a char entry
  00000580     00168 MIOS_GLCD_FONT_OFFSET   EQU     0x580   ; for GLCDs: the byte offset between the characters
  00000581     00169 MIOS_GLCD_FONT_PTRL     EQU     0x581   ; for GLCDs: pointer to the character table, low-byte
  00000582     00170 MIOS_GLCD_FONT_PTRH     EQU     0x582   ; for GLCDs: pointer to the character table, high-byte
  00000583     00171 MIOS_LCD_TIMEOUT0       EQU     0x583   ; can be used for timeout loops
  00000584     00172 MIOS_LCD_TIMEOUT1       EQU     0x584   ; can be used for timeout loops
  00000585     00173 MIOS_GLCD_TMP1          EQU     0x585   ; can be used as temporary buffer
  00000586     00174 MIOS_GLCD_TMP2          EQU     0x586   ; can be used as temporary buffer
  00000587     00175 MIOS_GLCD_TMP3          EQU     0x587   ; can be used as temporary buffer
  00000588     00176 MIOS_GLCD_TMP4          EQU     0x588   ; can be used as temporary buffer
  00000589     00177 MIOS_LCD_Y0_OFFSET      EQU     0x589   ; Y0 offset of LCD
  0000058A     00178 MIOS_LCD_Y1_OFFSET      EQU     0x58a   ; Y1 offset of LCD
  0000058B     00179 MIOS_LCD_Y2_OFFSET      EQU     0x58b   ; Y2 offset of LCD
  0000058C     00180 MIOS_LCD_Y3_OFFSET      EQU     0x58c   ; Y3 offset of LCD
  0000058D     00181 MIOS_LCD_CURSOR_POS_REAL EQU    0x58d   ; unmapped cursor position which has been set with MIOS_LCD_CursorSet
  0000058E     00182 MIOS_GLCD_FONT_PTRU     EQU     0x58e   ; for GLCDs: pointer to the character table, upper-byte (>64k flash derivatives only)
               00025 
gpasm-0.13.4 beta               /home/this/mios/trunk/modules/mios_wrapper/mios_wrapper.asm10-29-2008  12:57:15         PAGE  6


LOC  OBJECT CODE     LINE SOURCE TEXT
  VALUE
 
               00026 ;; ---[ vectors to MIOS functions (never change!) ]---
               00027 #include <mios_vectors.inc>
               00001 ; $Id: mios_vectors.inc 49 2008-01-30 21:47:31Z tk $
               00002 
  00002C00     00003 MIOS_MIDI_BeginStream                   EQU     0x2c00
  00002C04     00004 MIOS_MIDI_DeviceIDAutoSet               EQU     0x2c04
  00002C08     00005 MIOS_MIDI_DeviceIDGet                   EQU     0x2c08
  00002C0C     00006 MIOS_MIDI_DeviceIDSet                   EQU     0x2c0c
  00002C10     00007 MIOS_MIDI_EndStream                     EQU     0x2c10
  00002C14     00008 MIOS_MIDI_Init                          EQU     0x2c14
  00002C18     00009 MIOS_MIDI_InterfaceAutoSet              EQU     0x2c18
  00002C1C     00010 MIOS_MIDI_InterfaceGet                  EQU     0x2c1c
  00002C20     00011 MIOS_MIDI_InterfaceSet                  EQU     0x2c20
  00002C24     00012 MIOS_MIDI_MergerGet                     EQU     0x2c24
  00002C28     00013 MIOS_MIDI_MergerSet                     EQU     0x2c28
  00002C2C     00014 MIOS_MIDI_RxBufferFree                  EQU     0x2c2c
  00002C30     00015 MIOS_MIDI_RxBufferGet                   EQU     0x2c30
  00002C34     00016 MIOS_MIDI_RxBufferPut                   EQU     0x2c34
  00002C38     00017 MIOS_MIDI_RxBufferUsed                  EQU     0x2c38
  00002C3C     00018 MIOS_MIDI_TxBufferFlush                 EQU     0x2c3c
  00002C40     00019 MIOS_MIDI_TxBufferFree                  EQU     0x2c40
  00002C44     00020 MIOS_MIDI_TxBufferGet                   EQU     0x2c44
  00002C48     00021 MIOS_MIDI_TxBufferPut                   EQU     0x2c48
  00002C4C     00022 MIOS_MIDI_TxBufferUsed                  EQU     0x2c4c
  00002C50     00023 MIOS_MPROC_MergerDisable                EQU     0x2c50
  00002C54     00024 MIOS_MPROC_MergerEnable                 EQU     0x2c54
  00002C58     00025 MIOS_MPROC_MergerGet                    EQU     0x2c58
  00002C5C     00026 MIOS_AIN_DeadbandGet                    EQU     0x2c5c
  00002C60     00027 MIOS_AIN_DeadbandSet                    EQU     0x2c60
  00002C64     00028 MIOS_AIN_Muxed                          EQU     0x2c64
  00002C68     00029 MIOS_AIN_NumberGet                      EQU     0x2c68
  00002C6C     00030 MIOS_AIN_NumberSet                      EQU     0x2c6c
  00002C70     00031 MIOS_AIN_Pin7bitGet                     EQU     0x2c70
  00002C74     00032 MIOS_AIN_PinGet                         EQU     0x2c74
  00002C78     00033 MIOS_AIN_PinLSBGet                      EQU     0x2c78
  00002C7C     00034 MIOS_AIN_PinMSBGet                      EQU     0x2c7c
  00002C80     00035 MIOS_AIN_UnMuxed                        EQU     0x2c80
  00002C84     00036 MIOS_MF_PWM_DutyCycleDownGet            EQU     0x2c84
  00002C88     00037 MIOS_MF_PWM_DutyCycleDownSet            EQU     0x2c88
  00002C8C     00038 MIOS_MF_PWM_DutyCycleUpGet              EQU     0x2c8c
  00002C90     00039 MIOS_MF_PWM_DutyCycleUpSet              EQU     0x2c90
  00002C94     00040 MIOS_MF_DeadbandGet                     EQU     0x2c94
  00002C98     00041 MIOS_MF_DeadbandSet                     EQU     0x2c98
  00002C9C     00042 MIOS_MF_Disable                         EQU     0x2c9c
  00002CA0     00043 MIOS_MF_Enable                          EQU     0x2ca0
  00002CA4     00044 MIOS_MF_FaderMove                       EQU     0x2ca4
  00002CA8     00045 MIOS_MF_SuspendDisable                  EQU     0x2ca8
  00002CAC     00046 MIOS_MF_SuspendEnable                   EQU     0x2cac
  00002CB0     00047 MIOS_MF_SuspendGet                      EQU     0x2cb0
  00002CB4     00048 MIOS_DIN_PinGet                         EQU     0x2cb4
  00002CB8     00049 MIOS_DIN_SRGet                          EQU     0x2cb8
  00002CBC     00050 MIOS_DOUT_PinGet                        EQU     0x2cbc
  00002CC0     00051 MIOS_DOUT_PinSet                        EQU     0x2cc0
  00002CC4     00052 MIOS_DOUT_PinSet0                       EQU     0x2cc4
gpasm-0.13.4 beta               /home/this/mios/trunk/modules/mios_wrapper/mios_wrapper.asm10-29-2008  12:57:15         PAGE  7


LOC  OBJECT CODE     LINE SOURCE TEXT
  VALUE
 
  00002CC8     00053 MIOS_DOUT_PinSet1                       EQU     0x2cc8
  00002CCC     00054 MIOS_DOUT_SRGet                         EQU     0x2ccc
  00002CD0     00055 MIOS_DOUT_SRSet                         EQU     0x2cd0
  00002CD4     00056 MIOS_ENC_Abs7bitAdd                     EQU     0x2cd4
  00002CD8     00057 MIOS_ENC_Abs7bitGet                     EQU     0x2cd8
  00002CDC     00058 MIOS_ENC_Abs7bitSet                     EQU     0x2cdc
  00002CE0     00059 MIOS_ENC_NumberGet                      EQU     0x2ce0
  00002CE4     00060 MIOS_ENC_SpeedGet                       EQU     0x2ce4
  00002CE8     00061 MIOS_ENC_SpeedSet                       EQU     0x2ce8
  00002CEC     00062 MIOS_SRIO_NumberGet                     EQU     0x2cec
  00002CF0     00063 MIOS_SRIO_NumberSet                     EQU     0x2cf0
  00002CF4     00064 MIOS_SRIO_TS_SensitivityGet             EQU     0x2cf4
  00002CF8     00065 MIOS_SRIO_TS_SensitivitySet             EQU     0x2cf8
  00002CFC     00066 MIOS_SRIO_UpdateFrqGet                  EQU     0x2cfc
  00002D00     00067 MIOS_SRIO_UpdateFrqSet                  EQU     0x2d00
  00002D04     00068 MIOS_LCD_Clear                          EQU     0x2d04
  00002D08     00069 MIOS_LCD_Cmd                            EQU     0x2d08
  00002D0C     00070 MIOS_LCD_CursorGet                      EQU     0x2d0c
  00002D10     00071 MIOS_LCD_CursorSet                      EQU     0x2d10
  00002D14     00072 MIOS_LCD_Data                           EQU     0x2d14
  00002D18     00073 MIOS_LCD_Init                           EQU     0x2d18
  00002D1C     00074 MIOS_LCD_PrintBCD1                      EQU     0x2d1c
  00002D20     00075 MIOS_LCD_PrintBCD2                      EQU     0x2d20
  00002D24     00076 MIOS_LCD_PrintBCD3                      EQU     0x2d24
  00002D28     00077 MIOS_LCD_PrintChar                      EQU     0x2d28
  00002D2C     00078 MIOS_LCD_PrintHex1                      EQU     0x2d2c
  00002D30     00079 MIOS_LCD_PrintHex2                      EQU     0x2d30
  00002D34     00080 MIOS_LCD_PrintMessage                   EQU     0x2d34
  00002D38     00081 MIOS_LCD_PrintPreconfString             EQU     0x2d38
  00002D3C     00082 MIOS_LCD_PrintString                    EQU     0x2d3c
  00002D40     00083 MIOS_LCD_TypeAutoSet                    EQU     0x2d40
  00002D44     00084 MIOS_LCD_TypeGet                        EQU     0x2d44
  00002D48     00085 MIOS_LCD_TypeSet                        EQU     0x2d48
  00002D4C     00086 MIOS_LCD_YAddressGet                    EQU     0x2d4c
  00002D50     00087 MIOS_LCD_YAddressSet                    EQU     0x2d50
  00002D54     00088 MIOS_GLCD_FontInit                      EQU     0x2d54
  00002D58     00089 MIOS_GLCD_GCursorGet                    EQU     0x2d58
  00002D5C     00090 MIOS_GLCD_GCursorSet                    EQU     0x2d5c
  00002D60     00091 MIOS_EEPROM_Read                        EQU     0x2d60
  00002D64     00092 MIOS_EEPROM_Write                       EQU     0x2d64
  00002D68     00093 MIOS_FLASH_Read                         EQU     0x2d68
  00002D6C     00094 MIOS_FLASH_Write                        EQU     0x2d6c
  00002D70     00095 MIOS_BANKSTICK_Read                     EQU     0x2d70
  00002D74     00096 MIOS_BANKSTICK_Write                    EQU     0x2d74
  00002D78     00097 MIOS_TIMER_Init                         EQU     0x2d78
  00002D7C     00098 MIOS_TIMER_Start                        EQU     0x2d7c
  00002D80     00099 MIOS_TIMER_Stop                         EQU     0x2d80
  00002D84     00100 MIOS_HLP_AddressFromTable               EQU     0x2d84
  00002D88     00101 MIOS_HLP_GetBitANDMask                  EQU     0x2d88
  00002D8C     00102 MIOS_HLP_GetBitORMask                   EQU     0x2d8c
  00002D90     00103 MIOS_HLP_GetIndex_2bytes                EQU     0x2d90
  00002D94     00104 MIOS_HLP_GetIndex_4bytes                EQU     0x2d94
  00002D98     00105 MIOS_HLP_IndirectJump                   EQU     0x2d98
  00002D9C     00106 MIOS_Delay                              EQU     0x2d9c
gpasm-0.13.4 beta               /home/this/mios/trunk/modules/mios_wrapper/mios_wrapper.asm10-29-2008  12:57:15         PAGE  8


LOC  OBJECT CODE     LINE SOURCE TEXT
  VALUE
 
  00002DA0     00107 MIOS_GPCounterGet                       EQU     0x2da0
  00002DA4     00108 MIOS_Reset                              EQU     0x2da4
  00002DA8     00109 MIOS_SystemResume                       EQU     0x2da8
  00002DAC     00110 MIOS_SystemSuspend                      EQU     0x2dac
  00002DB0     00111 MIOS_UserResume                         EQU     0x2db0
  00002DB4     00112 MIOS_UserSuspend                        EQU     0x2db4
  00002DB8     00113 MIOS_HLP_16bitAddSaturate               EQU     0x2db8
  00002DBC     00114 MIOS_DIN_PinAutoRepeatEnable            EQU     0x2dbc
  00002DC0     00115 MIOS_DIN_PinAutoRepeatDisable           EQU     0x2dc0
  00002DC4     00116 MIOS_DIN_PinAutoRepeatGet               EQU     0x2dc4
  00002DC8     00117 MIOS_CLCD_SpecialCharInit               EQU     0x2dc8
  00002DCC     00118 MIOS_CLCD_SpecialCharsInit              EQU     0x2dcc
  00002DD0     00119 MIOS_AIN_DynamicPrioSet                 EQU     0x2dd0
  00002DD4     00120 MIOS_AIN_DynamicPrioGet                 EQU     0x2dd4
  00002DD8     00121 MIOS_AIN_LastPinsGet                    EQU     0x2dd8
  00002DDC     00122 MIOS_BANKSTICK_CtrlSet                  EQU     0x2ddc
  00002DE0     00123 MIOS_BANKSTICK_CtrlGet                  EQU     0x2de0
  00002DE4     00124 MIOS_BANKSTICK_WritePage                EQU     0x2de4
  00002DE8     00125 MIOS_HLP_Dec2BCD                        EQU     0x2de8
  00002DEC     00126 MIOS_LCD_PrintBCD4                      EQU     0x2dec
  00002DF0     00127 MIOS_LCD_PrintBCD5                      EQU     0x2df0
  00002DF4     00128 MIOS_LCD_MessageStart                   EQU     0x2df4
  00002DF8     00129 MIOS_LCD_MessageStop                    EQU     0x2df8
  00002DFC     00130 MIOS_MF_PWM_PeriodGet                   EQU     0x2dfc
  00002E00     00131 MIOS_MF_PWM_PeriodSet                   EQU     0x2e00
  00002E04     00132 MIOS_IIC_Start                          EQU     0x2e04
  00002E08     00133 MIOS_IIC_Stop                           EQU     0x2e08
  00002E0C     00134 MIOS_IIC_ByteSend                       EQU     0x2e0c
  00002E10     00135 MIOS_IIC_ByteReceive                    EQU     0x2e10
  00002E14     00136 MIOS_IIC_AckSend                        EQU     0x2e14
  00002E18     00137 MIOS_IIC_NakSend                        EQU     0x2e18
  00002E1C     00138 MIOS_IIC_CtrlSet                        EQU     0x2e1c
  00002E20     00139 MIOS_IIC_CtrlGet                        EQU     0x2e20
  00002E24     00140 MIOS_SRIO_DebounceSet                   EQU     0x2e24
  00002E28     00141 MIOS_SRIO_DebounceGet                   EQU     0x2e28
  00002E2C     00142 MIOS_MF_TouchDetectionReset             EQU     0x2e2c
  00002E30     00143 MIOS_BANKSTICK_ReadPage                 EQU     0x2e30
  00002E34     00144 MIOS_EEPROM_ReadPage                    EQU     0x2e34
  00002E38     00145 MIOS_EEPROM_WritePage                   EQU     0x2e38
  00002E3C     00146 MIOS_TIMER_ReInit                       EQU     0x2e3c
  00002E40     00147 MIOS_RESERVED_144                       EQU     0x2e40
  00002E44     00148 MIOS_RESERVED_145                       EQU     0x2e44
  00002E48     00149 MIOS_RESERVED_146                       EQU     0x2e48
  00002E4C     00150 MIOS_RESERVED_147                       EQU     0x2e4c
  00002E50     00151 MIOS_RESERVED_148                       EQU     0x2e50
  00002E54     00152 MIOS_RESERVED_149                       EQU     0x2e54
  00002E58     00153 MIOS_RESERVED_150                       EQU     0x2e58
  00002E5C     00154 MIOS_RESERVED_151                       EQU     0x2e5c
  00002E60     00155 MIOS_RESERVED_152                       EQU     0x2e60
  00002E64     00156 MIOS_RESERVED_153                       EQU     0x2e64
  00002E68     00157 MIOS_RESERVED_154                       EQU     0x2e68
  00002E6C     00158 MIOS_RESERVED_155                       EQU     0x2e6c
  00002E70     00159 MIOS_RESERVED_156                       EQU     0x2e70
  00002E74     00160 MIOS_RESERVED_157                       EQU     0x2e74
gpasm-0.13.4 beta               /home/this/mios/trunk/modules/mios_wrapper/mios_wrapper.asm10-29-2008  12:57:15         PAGE  9


LOC  OBJECT CODE     LINE SOURCE TEXT
  VALUE
 
  00002E78     00161 MIOS_RESERVED_158                       EQU     0x2e78
  00002E7C     00162 MIOS_RESERVED_159                       EQU     0x2e7c
  00002E80     00163 MIOS_RESERVED_160                       EQU     0x2e80
  00002E84     00164 MIOS_RESERVED_161                       EQU     0x2e84
  00002E88     00165 MIOS_RESERVED_162                       EQU     0x2e88
  00002E8C     00166 MIOS_RESERVED_163                       EQU     0x2e8c
  00002E90     00167 MIOS_RESERVED_164                       EQU     0x2e90
  00002E94     00168 MIOS_RESERVED_165                       EQU     0x2e94
  00002E98     00169 MIOS_RESERVED_166                       EQU     0x2e98
  00002E9C     00170 MIOS_RESERVED_167                       EQU     0x2e9c
  00002EA0     00171 MIOS_RESERVED_168                       EQU     0x2ea0
  00002EA4     00172 MIOS_RESERVED_169                       EQU     0x2ea4
  00002EA8     00173 MIOS_RESERVED_170                       EQU     0x2ea8
  00002EAC     00174 MIOS_RESERVED_171                       EQU     0x2eac
  00002EB0     00175 MIOS_RESERVED_172                       EQU     0x2eb0
  00002EB4     00176 MIOS_RESERVED_173                       EQU     0x2eb4
  00002EB8     00177 MIOS_RESERVED_174                       EQU     0x2eb8
  00002EBC     00178 MIOS_RESERVED_175                       EQU     0x2ebc
  00002EC0     00179 MIOS_RESERVED_176                       EQU     0x2ec0
  00002EC4     00180 MIOS_RESERVED_177                       EQU     0x2ec4
  00002EC8     00181 MIOS_RESERVED_178                       EQU     0x2ec8
  00002ECC     00182 MIOS_RESERVED_179                       EQU     0x2ecc
  00002ED0     00183 MIOS_RESERVED_180                       EQU     0x2ed0
  00002ED4     00184 MIOS_RESERVED_181                       EQU     0x2ed4
  00002ED8     00185 MIOS_RESERVED_182                       EQU     0x2ed8
  00002EDC     00186 MIOS_RESERVED_183                       EQU     0x2edc
  00002EE0     00187 MIOS_RESERVED_184                       EQU     0x2ee0
  00002EE4     00188 MIOS_RESERVED_185                       EQU     0x2ee4
  00002EE8     00189 MIOS_RESERVED_186                       EQU     0x2ee8
  00002EEC     00190 MIOS_RESERVED_187                       EQU     0x2eec
  00002EF0     00191 MIOS_RESERVED_188                       EQU     0x2ef0
  00002EF4     00192 MIOS_RESERVED_189                       EQU     0x2ef4
  00002EF8     00193 MIOS_RESERVED_190                       EQU     0x2ef8
  00002EFC     00194 MIOS_RESERVED_191                       EQU     0x2efc
  00002F00     00195 MIOS_RESERVED_192                       EQU     0x2f00
  00002F04     00196 MIOS_RESERVED_193                       EQU     0x2f04
  00002F08     00197 MIOS_RESERVED_194                       EQU     0x2f08
  00002F0C     00198 MIOS_RESERVED_195                       EQU     0x2f0c
  00002F10     00199 MIOS_RESERVED_196                       EQU     0x2f10
  00002F14     00200 MIOS_RESERVED_197                       EQU     0x2f14
  00002F18     00201 MIOS_RESERVED_198                       EQU     0x2f18
  00002F1C     00202 MIOS_RESERVED_199                       EQU     0x2f1c
  00002F20     00203 MIOS_RESERVED_200                       EQU     0x2f20
  00002F24     00204 MIOS_RESERVED_201                       EQU     0x2f24
  00002F28     00205 MIOS_RESERVED_202                       EQU     0x2f28
  00002F2C     00206 MIOS_RESERVED_203                       EQU     0x2f2c
  00002F30     00207 MIOS_RESERVED_204                       EQU     0x2f30
  00002F34     00208 MIOS_RESERVED_205                       EQU     0x2f34
  00002F38     00209 MIOS_RESERVED_206                       EQU     0x2f38
  00002F3C     00210 MIOS_RESERVED_207                       EQU     0x2f3c
  00002F40     00211 MIOS_RESERVED_208                       EQU     0x2f40
  00002F44     00212 MIOS_RESERVED_209                       EQU     0x2f44
  00002F48     00213 MIOS_RESERVED_210                       EQU     0x2f48
  00002F4C     00214 MIOS_RESERVED_211                       EQU     0x2f4c
gpasm-0.13.4 beta               /home/this/mios/trunk/modules/mios_wrapper/mios_wrapper.asm10-29-2008  12:57:15         PAGE 10


LOC  OBJECT CODE     LINE SOURCE TEXT
  VALUE
 
  00002F50     00215 MIOS_RESERVED_212                       EQU     0x2f50
  00002F54     00216 MIOS_RESERVED_213                       EQU     0x2f54
  00002F58     00217 MIOS_RESERVED_214                       EQU     0x2f58
  00002F5C     00218 MIOS_RESERVED_215                       EQU     0x2f5c
  00002F60     00219 MIOS_RESERVED_216                       EQU     0x2f60
  00002F64     00220 MIOS_RESERVED_217                       EQU     0x2f64
  00002F68     00221 MIOS_RESERVED_218                       EQU     0x2f68
  00002F6C     00222 MIOS_RESERVED_219                       EQU     0x2f6c
  00002F70     00223 MIOS_RESERVED_220                       EQU     0x2f70
  00002F74     00224 MIOS_RESERVED_221                       EQU     0x2f74
  00002F78     00225 MIOS_RESERVED_222                       EQU     0x2f78
  00002F7C     00226 MIOS_RESERVED_223                       EQU     0x2f7c
  00002F80     00227 MIOS_RESERVED_224                       EQU     0x2f80
  00002F84     00228 MIOS_RESERVED_225                       EQU     0x2f84
  00002F88     00229 MIOS_RESERVED_226                       EQU     0x2f88
  00002F8C     00230 MIOS_RESERVED_227                       EQU     0x2f8c
  00002F90     00231 MIOS_RESERVED_228                       EQU     0x2f90
  00002F94     00232 MIOS_RESERVED_229                       EQU     0x2f94
  00002F98     00233 MIOS_RESERVED_230                       EQU     0x2f98
  00002F9C     00234 MIOS_RESERVED_231                       EQU     0x2f9c
  00002FA0     00235 MIOS_RESERVED_232                       EQU     0x2fa0
  00002FA4     00236 MIOS_RESERVED_233                       EQU     0x2fa4
  00002FA8     00237 MIOS_RESERVED_234                       EQU     0x2fa8
  00002FAC     00238 MIOS_RESERVED_235                       EQU     0x2fac
  00002FB0     00239 MIOS_RESERVED_236                       EQU     0x2fb0
  00002FB4     00240 MIOS_RESERVED_237                       EQU     0x2fb4
  00002FB8     00241 MIOS_RESERVED_238                       EQU     0x2fb8
  00002FBC     00242 MIOS_RESERVED_239                       EQU     0x2fbc
  00002FC0     00243 MIOS_RESERVED_240                       EQU     0x2fc0
  00002FC4     00244 MIOS_RESERVED_241                       EQU     0x2fc4
  00002FC8     00245 MIOS_RESERVED_242                       EQU     0x2fc8
  00002FCC     00246 MIOS_RESERVED_243                       EQU     0x2fcc
  00002FD0     00247 MIOS_RESERVED_244                       EQU     0x2fd0
  00002FD4     00248 MIOS_RESERVED_245                       EQU     0x2fd4
  00002FD8     00249 MIOS_RESERVED_246                       EQU     0x2fd8
  00002FDC     00250 MIOS_RESERVED_247                       EQU     0x2fdc
  00002FE0     00251 MIOS_RESERVED_248                       EQU     0x2fe0
  00002FE4     00252 MIOS_RESERVED_249                       EQU     0x2fe4
  00002FE8     00253 MIOS_RESERVED_250                       EQU     0x2fe8
  00002FEC     00254 MIOS_RESERVED_251                       EQU     0x2fec
  00002FF0     00255 MIOS_RESERVED_252                       EQU     0x2ff0
  00002FF4     00256 MIOS_RESERVED_253                       EQU     0x2ff4
  00002FF8     00257 MIOS_RESERVED_254                       EQU     0x2ff8
  00002FFC     00258 MIOS_RESERVED_255                       EQU     0x2ffc
               00028 
               00029 ;; ---[ user hooks (never change!) ]---
               00030 #include <user_vectors.inc>
               00001 ; $Id: user_vectors.inc 49 2008-01-30 21:47:31Z tk $
               00002 ;
               00003 ; User vectortable - contains user hooks to MIOS
               00004 ;
               00005 ; ==========================================================================
               00006 ;
               00007 ;  Copyright 1998-2006 Thorsten Klose (tk@midibox.org)
gpasm-0.13.4 beta               /home/this/mios/trunk/modules/mios_wrapper/mios_wrapper.asm10-29-2008  12:57:15         PAGE 11


LOC  OBJECT CODE     LINE SOURCE TEXT
  VALUE
 
               00008 ;  Licensed for personal non-commercial use only.
               00009 ;  All other rights reserved.
               00010 ; 
               00011 ; ==========================================================================
               00012 
               00013         ;; never change the origin or the order of entries!
               00014         org     0x3000
3000           00015 _User_Init
3000 EF00 F000 00016         goto    USER_Init
3004           00017 _USER_Tick
3004 EF00 F000 00018         goto    USER_Tick
3008           00019 _USER_Timer
3008 EF00 F000 00020         goto    USER_Timer
300C           00021 _USER_MPROC_DebugTrigger
300C EF00 F000 00022         goto    USER_MPROC_DebugTrigger
3010           00023 _USER_DISPLAY_Init
3010 EF00 F000 00024         goto    USER_DISPLAY_Init
3014           00025 _USER_DISPLAY_Tick
3014 EF00 F000 00026         goto    USER_DISPLAY_Tick
3018           00027 _USER_SR_Service_Prepare
3018 EF00 F000 00028         goto    USER_SR_Service_Prepare
301C           00029 _USER_SR_Service_Finish
301C EF00 F000 00030         goto    USER_SR_Service_Finish
3020           00031 _USER_DIN_NotifyToggle
3020 EF00 F000 00032         goto    USER_DIN_NotifyToggle
3024           00033 _USER_ENC_NotifyChange
3024 EF00 F000 00034         goto    USER_ENC_NotifyChange
3028           00035 _USER_AIN_NotifyChange
3028 EF00 F000 00036         goto    USER_AIN_NotifyChange
302C           00037 _USER_MPROC_NotifyReceivedByte
302C EF00 F000 00038         goto    USER_MPROC_NotifyReceivedByte
3030           00039 _USER_MPROC_NotifyTimeout
3030 EF00 F000 00040         goto    USER_MPROC_NotifyTimeout
3034           00041 _USER_MPROC_NotifyReceivedEvent
3034 EF00 F000 00042         goto    USER_MPROC_NotifyReceivedEvent
3038           00043 _USER_MPROC_NotifyFoundEvent
3038 EF00 F000 00044         goto    USER_MPROC_NotifyFoundEvent
303C           00045 _USER_LCD_Init
303C EF00 F000 00046         goto    USER_LCD_Init
3040           00047 _USER_LCD_Clear
3040 EF00 F000 00048         goto    USER_LCD_Clear
3044           00049 _USER_LCD_CursorSet
3044 EF00 F000 00050         goto    USER_LCD_CursorSet
3048           00051 _USER_LCD_PrintChar
3048 EF00 F000 00052         goto    USER_LCD_PrintChar
304C           00053 _USER_MIDI_NotifyRx
304C EF00 F000 00054         goto    USER_MIDI_NotifyRx
3050           00055 _USER_MIDI_NotifyTx
3050 EF00 F000 00056         goto    USER_MIDI_NotifyTx
3054           00057 _USER_LCD_Data
3054 EF00 F000 00058         goto    USER_LCD_Data
3058           00059 _USER_LCD_Cmd
3058 EF00 F000 00060         goto    USER_LCD_Cmd
305C           00061 _USER_LCD_SpecialCharInit
gpasm-0.13.4 beta               /home/this/mios/trunk/modules/mios_wrapper/mios_wrapper.asm10-29-2008  12:57:15         PAGE 12


LOC  OBJECT CODE     LINE SOURCE TEXT
  VALUE
 
305C EF00 F000 00062         goto    USER_LCD_SpecialCharInit
3060           00063 USER_RESERVED_25
3060 0012      00064         return
3062 0000      00065         nop
3064           00066 USER_RESERVED_26
3064 0012      00067         return
3066 0000      00068         nop
3068           00069 USER_RESERVED_27
3068 0012      00070         return
306A 0000      00071         nop
306C           00072 USER_RESERVED_28
306C 0012      00073         return
306E 0000      00074         nop
3070           00075 USER_RESERVED_29
3070 0012      00076         return
3072 0000      00077         nop
3074           00078 USER_RESERVED_30
3074 0012      00079         return
3076 0000      00080         nop
3078           00081 USER_RESERVED_31
3078 0012      00082         return
307A 0000      00083         nop
307C           00084 USER_RESERVED_32
307C 0012      00085         return
307E 0000      00086         nop
               00031 
               00032 ;; ==========================================================================
               00033 ;;  General Application Settings
               00034 ;; ==========================================================================
               00035 
               00036 ;; ---[ configuration table for MIDI processor ]---
               00037 #ifndef DONT_INCLUDE_MIOS_MT_TABLE
               00038 ;; dummy table located in $MIOS_PATH/include/asm
               00039 ;; If the application should use MT entries,
               00040 ;; just add "-DDONT_INCLUDE_MIOS_MT_TABLE" to MIOS_WRAPPER_DEFINES
               00041 ;; and build the table within the C program with:
               00042 ;; 
               00043 ;; MIOS_MT_TABLE {
               00044 ;;   MIOS_MT_ENTRY(0xb0, 0x10), // CC#16
               00045 ;;   MIOS_MT_ENTRY(0xb0, 0x11), // CC#17
               00046 ;;   MIOS_MT_ENTRY(0xb0, 0x12), // CC#18
               00047 ;;   MIOS_MT_ENTRY(0xb0, 0x13), // CC#19
               00048 ;;   MIOS_MT_EOT
               00049 ;; };
               00050 ;; 
               00051 ;; The MIOS_MT_* macros are defined in $MIOS_PATH/include/c/cmios.h
               00052 ;; 
               00053 ;; Note that due to the inflexibility of the MT Table concept, it isn't
               00054 ;; recommented for new designs
               00055 #include <mios_mt_table.inc>
               00001 ; $Id: mios_mt_table.inc 69 2008-02-01 00:20:18Z tk $
               00002 ;
               00003 ; "Dummy" MIDI Trigger Configuaration Table
               00004 ; 
gpasm-0.13.4 beta               /home/this/mios/trunk/modules/mios_wrapper/mios_wrapper.asm10-29-2008  12:57:15         PAGE 13


LOC  OBJECT CODE     LINE SOURCE TEXT
  VALUE
 
               00005 ; Should be included by the application, if the MIDI processor feature
               00006 ; is not used in order to pre-initialize the table area with EOT's
               00007 ;
               00008 ; Note: due to the inflexible concept (e.g. handling of Note On/Off events),
               00009 ; the usage of this function is not recommented for new designs - please parse 
               00010 ; MIDI events locally within the application.
               00011 ;
               00012 ;
               00013         org     0x3080          ; never change the origin!
               00014 
               00015 ;; --------------------------------------------------------------------------
               00016 ;; The MIDI Trigger table maps incoming MIDI events to control elements
               00017 ;; (pots/faders, encoders, buttons, LEDs, ...)
               00018 ;; 
               00019 ;; After the MIOS MIDI processor (MPROC) has received a complete event, it
               00020 ;; searches in this table for a matching entry and calls USER_MPROC_NotifyFoundEvent
               00021 ;; with the table index in WREG and the MIDI event in MIOS_PARAMETER[123]
               00022 ;; 
               00023 ;; Note also that the MIDI processor stops scanning the table after
               00024 ;; the first MT_EOT entry
               00025 ;; 
               00026 ;; Note2: never change the origin (memory location) of this table!
               00027 ;; 
               00028 ;; Optionally this table can also be used to define events, which should be
               00029 ;; transmitted (Example: see example_ain64_din128_dout128), so that incoming
               00030 ;; and outgoing events are located at one place
               00031 ;; 
               00032 ;; The table *must* contain 256 entries. Unused entries should be filled with
               00033 ;; MT_EOT.
               00034 ;; --------------------------------------------------------------------------
               00035 
               00036         ;; MIDI Trigger entry structure
               00037 MT_ENTRY MACRO event_0, event_1
               00038         dw      (event_1 << 8) | event_0
               00039         ENDM
               00040 
               00041 MT_EOT  MACRO
               00042         dw      0xffff
               00043         ENDM
               00044 
               00045 
3080           00046 _MIOS_MPROC_EVENT_TABLE
3080           00047 MIOS_MPROC_EVENT_TABLE
               00048         ;; entry 0x00-0x0f
               00049         MT_EOT
3080 FFFF          M         dw      0xffff
               00050         MT_EOT
3082 FFFF          M         dw      0xffff
               00051         MT_EOT
3084 FFFF          M         dw      0xffff
               00052         MT_EOT
3086 FFFF          M         dw      0xffff
               00053         MT_EOT
3088 FFFF          M         dw      0xffff
gpasm-0.13.4 beta               /home/this/mios/trunk/modules/mios_wrapper/mios_wrapper.asm10-29-2008  12:57:15         PAGE 14


LOC  OBJECT CODE     LINE SOURCE TEXT
  VALUE
 
               00054         MT_EOT
308A FFFF          M         dw      0xffff
               00055         MT_EOT
308C FFFF          M         dw      0xffff
               00056         MT_EOT
308E FFFF          M         dw      0xffff
               00057         MT_EOT
3090 FFFF          M         dw      0xffff
               00058         MT_EOT
3092 FFFF          M         dw      0xffff
               00059         MT_EOT
3094 FFFF          M         dw      0xffff
               00060         MT_EOT
3096 FFFF          M         dw      0xffff
               00061         MT_EOT
3098 FFFF          M         dw      0xffff
               00062         MT_EOT
309A FFFF          M         dw      0xffff
               00063         MT_EOT
309C FFFF          M         dw      0xffff
               00064         MT_EOT
309E FFFF          M         dw      0xffff
               00065 
               00066         ;; entry 0x10-0x1f      
               00067         MT_EOT
30A0 FFFF          M         dw      0xffff
               00068         MT_EOT
30A2 FFFF          M         dw      0xffff
               00069         MT_EOT
30A4 FFFF          M         dw      0xffff
               00070         MT_EOT
30A6 FFFF          M         dw      0xffff
               00071         MT_EOT
30A8 FFFF          M         dw      0xffff
               00072         MT_EOT
30AA FFFF          M         dw      0xffff
               00073         MT_EOT
30AC FFFF          M         dw      0xffff
               00074         MT_EOT
30AE FFFF          M         dw      0xffff
               00075         MT_EOT
30B0 FFFF          M         dw      0xffff
               00076         MT_EOT
30B2 FFFF          M         dw      0xffff
               00077         MT_EOT
30B4 FFFF          M         dw      0xffff
               00078         MT_EOT
30B6 FFFF          M         dw      0xffff
               00079         MT_EOT
30B8 FFFF          M         dw      0xffff
               00080         MT_EOT
30BA FFFF          M         dw      0xffff
               00081         MT_EOT
30BC FFFF          M         dw      0xffff
gpasm-0.13.4 beta               /home/this/mios/trunk/modules/mios_wrapper/mios_wrapper.asm10-29-2008  12:57:15         PAGE 15


LOC  OBJECT CODE     LINE SOURCE TEXT
  VALUE
 
               00082         MT_EOT
30BE FFFF          M         dw      0xffff
               00083 
               00084         ;; entry 0x20-0x2f
               00085         MT_EOT
30C0 FFFF          M         dw      0xffff
               00086         MT_EOT
30C2 FFFF          M         dw      0xffff
               00087         MT_EOT
30C4 FFFF          M         dw      0xffff
               00088         MT_EOT
30C6 FFFF          M         dw      0xffff
               00089         MT_EOT
30C8 FFFF          M         dw      0xffff
               00090         MT_EOT
30CA FFFF          M         dw      0xffff
               00091         MT_EOT
30CC FFFF          M         dw      0xffff
               00092         MT_EOT
30CE FFFF          M         dw      0xffff
               00093         MT_EOT
30D0 FFFF          M         dw      0xffff
               00094         MT_EOT
30D2 FFFF          M         dw      0xffff
               00095         MT_EOT
30D4 FFFF          M         dw      0xffff
               00096         MT_EOT
30D6 FFFF          M         dw      0xffff
               00097         MT_EOT
30D8 FFFF          M         dw      0xffff
               00098         MT_EOT
30DA FFFF          M         dw      0xffff
               00099         MT_EOT
30DC FFFF          M         dw      0xffff
               00100         MT_EOT
30DE FFFF          M         dw      0xffff
               00101         
               00102         ;; entry 0x30-0x3f
               00103         MT_EOT
30E0 FFFF          M         dw      0xffff
               00104         MT_EOT
30E2 FFFF          M         dw      0xffff
               00105         MT_EOT
30E4 FFFF          M         dw      0xffff
               00106         MT_EOT
30E6 FFFF          M         dw      0xffff
               00107         MT_EOT
30E8 FFFF          M         dw      0xffff
               00108         MT_EOT
30EA FFFF          M         dw      0xffff
               00109         MT_EOT
30EC FFFF          M         dw      0xffff
               00110         MT_EOT
30EE FFFF          M         dw      0xffff
gpasm-0.13.4 beta               /home/this/mios/trunk/modules/mios_wrapper/mios_wrapper.asm10-29-2008  12:57:15         PAGE 16


LOC  OBJECT CODE     LINE SOURCE TEXT
  VALUE
 
               00111         MT_EOT
30F0 FFFF          M         dw      0xffff
               00112         MT_EOT
30F2 FFFF          M         dw      0xffff
               00113         MT_EOT
30F4 FFFF          M         dw      0xffff
               00114         MT_EOT
30F6 FFFF          M         dw      0xffff
               00115         MT_EOT
30F8 FFFF          M         dw      0xffff
               00116         MT_EOT
30FA FFFF          M         dw      0xffff
               00117         MT_EOT
30FC FFFF          M         dw      0xffff
               00118         MT_EOT
30FE FFFF          M         dw      0xffff
               00119         
               00120         ;; entry 0x40-0x4f
               00121         MT_EOT
3100 FFFF          M         dw      0xffff
               00122         MT_EOT
3102 FFFF          M         dw      0xffff
               00123         MT_EOT
3104 FFFF          M         dw      0xffff
               00124         MT_EOT
3106 FFFF          M         dw      0xffff
               00125         MT_EOT
3108 FFFF          M         dw      0xffff
               00126         MT_EOT
310A FFFF          M         dw      0xffff
               00127         MT_EOT
310C FFFF          M         dw      0xffff
               00128         MT_EOT
310E FFFF          M         dw      0xffff
               00129         MT_EOT
3110 FFFF          M         dw      0xffff
               00130         MT_EOT
3112 FFFF          M         dw      0xffff
               00131         MT_EOT
3114 FFFF          M         dw      0xffff
               00132         MT_EOT
3116 FFFF          M         dw      0xffff
               00133         MT_EOT
3118 FFFF          M         dw      0xffff
               00134         MT_EOT
311A FFFF          M         dw      0xffff
               00135         MT_EOT
311C FFFF          M         dw      0xffff
               00136         MT_EOT
311E FFFF          M         dw      0xffff
               00137         
               00138         ;; entry 0x50-0x5f
               00139         MT_EOT
3120 FFFF          M         dw      0xffff
gpasm-0.13.4 beta               /home/this/mios/trunk/modules/mios_wrapper/mios_wrapper.asm10-29-2008  12:57:15         PAGE 17


LOC  OBJECT CODE     LINE SOURCE TEXT
  VALUE
 
               00140         MT_EOT
3122 FFFF          M         dw      0xffff
               00141         MT_EOT
3124 FFFF          M         dw      0xffff
               00142         MT_EOT
3126 FFFF          M         dw      0xffff
               00143         MT_EOT
3128 FFFF          M         dw      0xffff
               00144         MT_EOT
312A FFFF          M         dw      0xffff
               00145         MT_EOT
312C FFFF          M         dw      0xffff
               00146         MT_EOT
312E FFFF          M         dw      0xffff
               00147         MT_EOT
3130 FFFF          M         dw      0xffff
               00148         MT_EOT
3132 FFFF          M         dw      0xffff
               00149         MT_EOT
3134 FFFF          M         dw      0xffff
               00150         MT_EOT
3136 FFFF          M         dw      0xffff
               00151         MT_EOT
3138 FFFF          M         dw      0xffff
               00152         MT_EOT
313A FFFF          M         dw      0xffff
               00153         MT_EOT
313C FFFF          M         dw      0xffff
               00154         MT_EOT
313E FFFF          M         dw      0xffff
               00155                 
               00156         ;; entry 0x60-0x6f
               00157         MT_EOT
3140 FFFF          M         dw      0xffff
               00158         MT_EOT
3142 FFFF          M         dw      0xffff
               00159         MT_EOT
3144 FFFF          M         dw      0xffff
               00160         MT_EOT
3146 FFFF          M         dw      0xffff
               00161         MT_EOT
3148 FFFF          M         dw      0xffff
               00162         MT_EOT
314A FFFF          M         dw      0xffff
               00163         MT_EOT
314C FFFF          M         dw      0xffff
               00164         MT_EOT
314E FFFF          M         dw      0xffff
               00165         MT_EOT
3150 FFFF          M         dw      0xffff
               00166         MT_EOT
3152 FFFF          M         dw      0xffff
               00167         MT_EOT
3154 FFFF          M         dw      0xffff
gpasm-0.13.4 beta               /home/this/mios/trunk/modules/mios_wrapper/mios_wrapper.asm10-29-2008  12:57:15         PAGE 18


LOC  OBJECT CODE     LINE SOURCE TEXT
  VALUE
 
               00168         MT_EOT
3156 FFFF          M         dw      0xffff
               00169         MT_EOT
3158 FFFF          M         dw      0xffff
               00170         MT_EOT
315A FFFF          M         dw      0xffff
               00171         MT_EOT
315C FFFF          M         dw      0xffff
               00172         MT_EOT
315E FFFF          M         dw      0xffff
               00173 
               00174         ;; entry 0x70-0x7f
               00175         MT_EOT
3160 FFFF          M         dw      0xffff
               00176         MT_EOT
3162 FFFF          M         dw      0xffff
               00177         MT_EOT
3164 FFFF          M         dw      0xffff
               00178         MT_EOT
3166 FFFF          M         dw      0xffff
               00179         MT_EOT
3168 FFFF          M         dw      0xffff
               00180         MT_EOT
316A FFFF          M         dw      0xffff
               00181         MT_EOT
316C FFFF          M         dw      0xffff
               00182         MT_EOT
316E FFFF          M         dw      0xffff
               00183         MT_EOT
3170 FFFF          M         dw      0xffff
               00184         MT_EOT
3172 FFFF          M         dw      0xffff
               00185         MT_EOT
3174 FFFF          M         dw      0xffff
               00186         MT_EOT
3176 FFFF          M         dw      0xffff
               00187         MT_EOT
3178 FFFF          M         dw      0xffff
               00188         MT_EOT
317A FFFF          M         dw      0xffff
               00189         MT_EOT
317C FFFF          M         dw      0xffff
               00190         MT_EOT
317E FFFF          M         dw      0xffff
               00191 
               00192         ;; entry 0x80-0x8f
               00193         MT_EOT
3180 FFFF          M         dw      0xffff
               00194         MT_EOT
3182 FFFF          M         dw      0xffff
               00195         MT_EOT
3184 FFFF          M         dw      0xffff
               00196         MT_EOT
3186 FFFF          M         dw      0xffff
gpasm-0.13.4 beta               /home/this/mios/trunk/modules/mios_wrapper/mios_wrapper.asm10-29-2008  12:57:15         PAGE 19


LOC  OBJECT CODE     LINE SOURCE TEXT
  VALUE
 
               00197         MT_EOT
3188 FFFF          M         dw      0xffff
               00198         MT_EOT
318A FFFF          M         dw      0xffff
               00199         MT_EOT
318C FFFF          M         dw      0xffff
               00200         MT_EOT
318E FFFF          M         dw      0xffff
               00201         MT_EOT
3190 FFFF          M         dw      0xffff
               00202         MT_EOT
3192 FFFF          M         dw      0xffff
               00203         MT_EOT
3194 FFFF          M         dw      0xffff
               00204         MT_EOT
3196 FFFF          M         dw      0xffff
               00205         MT_EOT
3198 FFFF          M         dw      0xffff
               00206         MT_EOT
319A FFFF          M         dw      0xffff
               00207         MT_EOT
319C FFFF          M         dw      0xffff
               00208         MT_EOT
319E FFFF          M         dw      0xffff
               00209 
               00210         ;; entry 0x90-0x9f
               00211         MT_EOT
31A0 FFFF          M         dw      0xffff
               00212         MT_EOT
31A2 FFFF          M         dw      0xffff
               00213         MT_EOT
31A4 FFFF          M         dw      0xffff
               00214         MT_EOT
31A6 FFFF          M         dw      0xffff
               00215         MT_EOT
31A8 FFFF          M         dw      0xffff
               00216         MT_EOT
31AA FFFF          M         dw      0xffff
               00217         MT_EOT
31AC FFFF          M         dw      0xffff
               00218         MT_EOT
31AE FFFF          M         dw      0xffff
               00219         MT_EOT
31B0 FFFF          M         dw      0xffff
               00220         MT_EOT
31B2 FFFF          M         dw      0xffff
               00221         MT_EOT
31B4 FFFF          M         dw      0xffff
               00222         MT_EOT
31B6 FFFF          M         dw      0xffff
               00223         MT_EOT
31B8 FFFF          M         dw      0xffff
               00224         MT_EOT
31BA FFFF          M         dw      0xffff
gpasm-0.13.4 beta               /home/this/mios/trunk/modules/mios_wrapper/mios_wrapper.asm10-29-2008  12:57:15         PAGE 20


LOC  OBJECT CODE     LINE SOURCE TEXT
  VALUE
 
               00225         MT_EOT
31BC FFFF          M         dw      0xffff
               00226         MT_EOT
31BE FFFF          M         dw      0xffff
               00227 
               00228         ;; entry 0xa0-0xaf
               00229         MT_EOT
31C0 FFFF          M         dw      0xffff
               00230         MT_EOT
31C2 FFFF          M         dw      0xffff
               00231         MT_EOT
31C4 FFFF          M         dw      0xffff
               00232         MT_EOT
31C6 FFFF          M         dw      0xffff
               00233         MT_EOT
31C8 FFFF          M         dw      0xffff
               00234         MT_EOT
31CA FFFF          M         dw      0xffff
               00235         MT_EOT
31CC FFFF          M         dw      0xffff
               00236         MT_EOT
31CE FFFF          M         dw      0xffff
               00237         MT_EOT
31D0 FFFF          M         dw      0xffff
               00238         MT_EOT
31D2 FFFF          M         dw      0xffff
               00239         MT_EOT
31D4 FFFF          M         dw      0xffff
               00240         MT_EOT
31D6 FFFF          M         dw      0xffff
               00241         MT_EOT
31D8 FFFF          M         dw      0xffff
               00242         MT_EOT
31DA FFFF          M         dw      0xffff
               00243         MT_EOT
31DC FFFF          M         dw      0xffff
               00244         MT_EOT
31DE FFFF          M         dw      0xffff
               00245 
               00246         ;; entry 0xb1-0xbf
               00247         MT_EOT
31E0 FFFF          M         dw      0xffff
               00248         MT_EOT
31E2 FFFF          M         dw      0xffff
               00249         MT_EOT
31E4 FFFF          M         dw      0xffff
               00250         MT_EOT
31E6 FFFF          M         dw      0xffff
               00251         MT_EOT
31E8 FFFF          M         dw      0xffff
               00252         MT_EOT
31EA FFFF          M         dw      0xffff
               00253         MT_EOT
31EC FFFF          M         dw      0xffff
gpasm-0.13.4 beta               /home/this/mios/trunk/modules/mios_wrapper/mios_wrapper.asm10-29-2008  12:57:15         PAGE 21


LOC  OBJECT CODE     LINE SOURCE TEXT
  VALUE
 
               00254         MT_EOT
31EE FFFF          M         dw      0xffff
               00255         MT_EOT
31F0 FFFF          M         dw      0xffff
               00256         MT_EOT
31F2 FFFF          M         dw      0xffff
               00257         MT_EOT
31F4 FFFF          M         dw      0xffff
               00258         MT_EOT
31F6 FFFF          M         dw      0xffff
               00259         MT_EOT
31F8 FFFF          M         dw      0xffff
               00260         MT_EOT
31FA FFFF          M         dw      0xffff
               00261         MT_EOT
31FC FFFF          M         dw      0xffff
               00262         MT_EOT
31FE FFFF          M         dw      0xffff
               00263 
               00264         ;; entry 0xc0-0xcf
               00265         MT_EOT
3200 FFFF          M         dw      0xffff
               00266         MT_EOT
3202 FFFF          M         dw      0xffff
               00267         MT_EOT
3204 FFFF          M         dw      0xffff
               00268         MT_EOT
3206 FFFF          M         dw      0xffff
               00269         MT_EOT
3208 FFFF          M         dw      0xffff
               00270         MT_EOT
320A FFFF          M         dw      0xffff
               00271         MT_EOT
320C FFFF          M         dw      0xffff
               00272         MT_EOT
320E FFFF          M         dw      0xffff
               00273         MT_EOT
3210 FFFF          M         dw      0xffff
               00274         MT_EOT
3212 FFFF          M         dw      0xffff
               00275         MT_EOT
3214 FFFF          M         dw      0xffff
               00276         MT_EOT
3216 FFFF          M         dw      0xffff
               00277         MT_EOT
3218 FFFF          M         dw      0xffff
               00278         MT_EOT
321A FFFF          M         dw      0xffff
               00279         MT_EOT
321C FFFF          M         dw      0xffff
               00280         MT_EOT
321E FFFF          M         dw      0xffff
               00281 
               00282         ;; entry 0xd0-0xdf
gpasm-0.13.4 beta               /home/this/mios/trunk/modules/mios_wrapper/mios_wrapper.asm10-29-2008  12:57:15         PAGE 22


LOC  OBJECT CODE     LINE SOURCE TEXT
  VALUE
 
               00283         MT_EOT
3220 FFFF          M         dw      0xffff
               00284         MT_EOT
3222 FFFF          M         dw      0xffff
               00285         MT_EOT
3224 FFFF          M         dw      0xffff
               00286         MT_EOT
3226 FFFF          M         dw      0xffff
               00287         MT_EOT
3228 FFFF          M         dw      0xffff
               00288         MT_EOT
322A FFFF          M         dw      0xffff
               00289         MT_EOT
322C FFFF          M         dw      0xffff
               00290         MT_EOT
322E FFFF          M         dw      0xffff
               00291         MT_EOT
3230 FFFF          M         dw      0xffff
               00292         MT_EOT
3232 FFFF          M         dw      0xffff
               00293         MT_EOT
3234 FFFF          M         dw      0xffff
               00294         MT_EOT
3236 FFFF          M         dw      0xffff
               00295         MT_EOT
3238 FFFF          M         dw      0xffff
               00296         MT_EOT
323A FFFF          M         dw      0xffff
               00297         MT_EOT
323C FFFF          M         dw      0xffff
               00298         MT_EOT
323E FFFF          M         dw      0xffff
               00299 
               00300         ;; entry 0xe0-0xef
               00301         MT_EOT
3240 FFFF          M         dw      0xffff
               00302         MT_EOT
3242 FFFF          M         dw      0xffff
               00303         MT_EOT
3244 FFFF          M         dw      0xffff
               00304         MT_EOT
3246 FFFF          M         dw      0xffff
               00305         MT_EOT
3248 FFFF          M         dw      0xffff
               00306         MT_EOT
324A FFFF          M         dw      0xffff
               00307         MT_EOT
324C FFFF          M         dw      0xffff
               00308         MT_EOT
324E FFFF          M         dw      0xffff
               00309         MT_EOT
3250 FFFF          M         dw      0xffff
               00310         MT_EOT
3252 FFFF          M         dw      0xffff
gpasm-0.13.4 beta               /home/this/mios/trunk/modules/mios_wrapper/mios_wrapper.asm10-29-2008  12:57:15         PAGE 23


LOC  OBJECT CODE     LINE SOURCE TEXT
  VALUE
 
               00311         MT_EOT
3254 FFFF          M         dw      0xffff
               00312         MT_EOT
3256 FFFF          M         dw      0xffff
               00313         MT_EOT
3258 FFFF          M         dw      0xffff
               00314         MT_EOT
325A FFFF          M         dw      0xffff
               00315         MT_EOT
325C FFFF          M         dw      0xffff
               00316         MT_EOT
325E FFFF          M         dw      0xffff
               00317 
               00318         ;; entry 0xf0-0xff
               00319         MT_EOT
3260 FFFF          M         dw      0xffff
               00320         MT_EOT
3262 FFFF          M         dw      0xffff
               00321         MT_EOT
3264 FFFF          M         dw      0xffff
               00322         MT_EOT
3266 FFFF          M         dw      0xffff
               00323         MT_EOT
3268 FFFF          M         dw      0xffff
               00324         MT_EOT
326A FFFF          M         dw      0xffff
               00325         MT_EOT
326C FFFF          M         dw      0xffff
               00326         MT_EOT
326E FFFF          M         dw      0xffff
               00327         MT_EOT
3270 FFFF          M         dw      0xffff
               00328         MT_EOT
3272 FFFF          M         dw      0xffff
               00329         MT_EOT
3274 FFFF          M         dw      0xffff
               00330         MT_EOT
3276 FFFF          M         dw      0xffff
               00331         MT_EOT
3278 FFFF          M         dw      0xffff
               00332         MT_EOT
327A FFFF          M         dw      0xffff
               00333         MT_EOT
327C FFFF          M         dw      0xffff
               00334         MT_EOT
327E FFFF          M         dw      0xffff
               00335 
               00056 #endif
               00057 
               00058 ;; ---[ configuration table for rotary encoders ]---
               00059 #ifndef DONT_INCLUDE_MIOS_ENC_TABLE
               00060 ;; dummy table located in $MIOS_PATH/include/asm
               00061 ;; If the application should use ENC entries,
               00062 ;; just add "-DDONT_INCLUDE_MIOS_ENC_TABLE" to MIOS_WRAPPER_DEFINES
gpasm-0.13.4 beta               /home/this/mios/trunk/modules/mios_wrapper/mios_wrapper.asm10-29-2008  12:57:15         PAGE 24


LOC  OBJECT CODE     LINE SOURCE TEXT
  VALUE
 
               00063 ;; and build the table within the C program with:
               00064 ;; 
               00065 ;; MIOS_ENC_TABLE {
               00066 ;;              // sr pin mode
               00067 ;;   MIOS_ENC_ENTRY(1, 0, MIOS_ENC_MODE_DETENTED), // VPot #1
               00068 ;;   MIOS_ENC_ENTRY(1, 2, MIOS_ENC_MODE_DETENTED), // VPot #2
               00069 ;;   MIOS_ENC_ENTRY(1, 4, MIOS_ENC_MODE_DETENTED), // VPot #3
               00070 ;;   MIOS_ENC_EOT
               00071 ;; };
               00072 ;; 
               00073 ;; The MIOS_MT_* macros are defined in $MIOS_PATH/include/c/cmios.h
               00074 #include <mios_enc_table.inc>
               00001 ; $Id: mios_enc_table.inc 69 2008-02-01 00:20:18Z tk $
               00002 ;
               00003 ; "Dummy" Configuration Table for Rotary Encoders
               00004 ; 
               00005 ; Should be included by the application, if no rotary encoders are connected
               00006 ; in order to pre-initialize the table area with EOT's
               00007 ; 
               00008 ; ==========================================================================
               00009 
               00010         org     0x3280          ; never change the origin!
               00011 
               00012 ;; --------------------------------------------------------------------------
               00013 ;; In this table DIN pins have to be assigned to rotary encoders for the
               00014 ;; MIOS_ENC driver 
               00015 ;; 
               00016 ;; up to 64 entries are provided
               00017 ;; 
               00018 ;; The table must be terminated with an ENC_EOT entry. Unused entries should
               00019 ;; be filled with ENC_EOT
               00020 ;; 
               00021 ;; ENC_ENTRY provides following parameters
               00022 ;;    o first parameter: number of shift register - 1, 2, 3, ... 16
               00023 ;;    o second parameter: number of pin; since two pins are necessary
               00024 ;;      for each encoder, an even number is expected: 0, 2, 4 or 6
               00025 ;;    o the third parameter contains the encoder mode:
               00026 ;;      either MIOS_ENC_MODE_NON_DETENTED
               00027 ;;          or MIOS_ENC_MODE_DETENTED
               00028 ;;          or MIOS_ENC_MODE_DETENTED2
               00029 ;;          or MIOS_ENC_MODE_DETENTED3
               00030 ;;
               00031 ;; Configuration Examples:
               00032 ;;    ENC_ENTRY  1,  0,  MIOS_ENC_MODE_NON_DETENTED    ; non-detented encoder at pin 0 and 1 of SR 1
               00033 ;;    ENC_ENTRY  1,  2,  MIOS_ENC_MODE_DETENTED        ; detented encoder at pin 2 and 3 of SR 1
               00034 ;;    ENC_ENTRY  9,  6,  MIOS_ENC_MODE_NON_DETENTED    ; non-detented encoder at pin 6 and 7 of SR 9
               00035 ;; --------------------------------------------------------------------------
               00036 
               00037         ;; encoder entry structure
               00038 ENC_ENTRY MACRO sr, din_0, mode
               00039         dw      (mode << 8) | (din_0 + 8*(sr-1))
               00040         ENDM    
               00041 ENC_EOT MACRO
               00042         dw      0xffff
gpasm-0.13.4 beta               /home/this/mios/trunk/modules/mios_wrapper/mios_wrapper.asm10-29-2008  12:57:15         PAGE 25


LOC  OBJECT CODE     LINE SOURCE TEXT
  VALUE
 
               00043         ENDM
               00044 
3280           00045 _MIOS_ENC_PIN_TABLE
3280           00046 MIOS_ENC_PIN_TABLE
               00047         ;; encoders 1-16
               00048         ;;        SR  Pin  Mode
               00049         ENC_EOT
3280 FFFF          M         dw      0xffff
               00050         ENC_EOT
3282 FFFF          M         dw      0xffff
               00051         ENC_EOT
3284 FFFF          M         dw      0xffff
               00052         ENC_EOT
3286 FFFF          M         dw      0xffff
               00053         ENC_EOT
3288 FFFF          M         dw      0xffff
               00054         ENC_EOT
328A FFFF          M         dw      0xffff
               00055         ENC_EOT
328C FFFF          M         dw      0xffff
               00056         ENC_EOT
328E FFFF          M         dw      0xffff
               00057         ENC_EOT
3290 FFFF          M         dw      0xffff
               00058         ENC_EOT
3292 FFFF          M         dw      0xffff
               00059         ENC_EOT
3294 FFFF          M         dw      0xffff
               00060         ENC_EOT
3296 FFFF          M         dw      0xffff
               00061         ENC_EOT
3298 FFFF          M         dw      0xffff
               00062         ENC_EOT
329A FFFF          M         dw      0xffff
               00063         ENC_EOT
329C FFFF          M         dw      0xffff
               00064         ENC_EOT
329E FFFF          M         dw      0xffff
               00065 
               00066         ;; encoders 17-32
               00067         ENC_EOT
32A0 FFFF          M         dw      0xffff
               00068         ENC_EOT
32A2 FFFF          M         dw      0xffff
               00069         ENC_EOT
32A4 FFFF          M         dw      0xffff
               00070         ENC_EOT
32A6 FFFF          M         dw      0xffff
               00071         ENC_EOT
32A8 FFFF          M         dw      0xffff
               00072         ENC_EOT
32AA FFFF          M         dw      0xffff
               00073         ENC_EOT
32AC FFFF          M         dw      0xffff
gpasm-0.13.4 beta               /home/this/mios/trunk/modules/mios_wrapper/mios_wrapper.asm10-29-2008  12:57:15         PAGE 26


LOC  OBJECT CODE     LINE SOURCE TEXT
  VALUE
 
               00074         ENC_EOT
32AE FFFF          M         dw      0xffff
               00075         ENC_EOT
32B0 FFFF          M         dw      0xffff
               00076         ENC_EOT
32B2 FFFF          M         dw      0xffff
               00077         ENC_EOT
32B4 FFFF          M         dw      0xffff
               00078         ENC_EOT
32B6 FFFF          M         dw      0xffff
               00079         ENC_EOT
32B8 FFFF          M         dw      0xffff
               00080         ENC_EOT
32BA FFFF          M         dw      0xffff
               00081         ENC_EOT
32BC FFFF          M         dw      0xffff
               00082         ENC_EOT
32BE FFFF          M         dw      0xffff
               00083 
               00084         ;; encoders 33-48
               00085         ENC_EOT
32C0 FFFF          M         dw      0xffff
               00086         ENC_EOT
32C2 FFFF          M         dw      0xffff
               00087         ENC_EOT
32C4 FFFF          M         dw      0xffff
               00088         ENC_EOT
32C6 FFFF          M         dw      0xffff
               00089         ENC_EOT
32C8 FFFF          M         dw      0xffff
               00090         ENC_EOT
32CA FFFF          M         dw      0xffff
               00091         ENC_EOT
32CC FFFF          M         dw      0xffff
               00092         ENC_EOT
32CE FFFF          M         dw      0xffff
               00093         ENC_EOT
32D0 FFFF          M         dw      0xffff
               00094         ENC_EOT
32D2 FFFF          M         dw      0xffff
               00095         ENC_EOT
32D4 FFFF          M         dw      0xffff
               00096         ENC_EOT
32D6 FFFF          M         dw      0xffff
               00097         ENC_EOT
32D8 FFFF          M         dw      0xffff
               00098         ENC_EOT
32DA FFFF          M         dw      0xffff
               00099         ENC_EOT
32DC FFFF          M         dw      0xffff
               00100         ENC_EOT
32DE FFFF          M         dw      0xffff
               00101 
               00102         ;; encoders 49-64
gpasm-0.13.4 beta               /home/this/mios/trunk/modules/mios_wrapper/mios_wrapper.asm10-29-2008  12:57:15         PAGE 27


LOC  OBJECT CODE     LINE SOURCE TEXT
  VALUE
 
               00103         ENC_EOT
32E0 FFFF          M         dw      0xffff
               00104         ENC_EOT
32E2 FFFF          M         dw      0xffff
               00105         ENC_EOT
32E4 FFFF          M         dw      0xffff
               00106         ENC_EOT
32E6 FFFF          M         dw      0xffff
               00107         ENC_EOT
32E8 FFFF          M         dw      0xffff
               00108         ENC_EOT
32EA FFFF          M         dw      0xffff
               00109         ENC_EOT
32EC FFFF          M         dw      0xffff
               00110         ENC_EOT
32EE FFFF          M         dw      0xffff
               00111         ENC_EOT
32F0 FFFF          M         dw      0xffff
               00112         ENC_EOT
32F2 FFFF          M         dw      0xffff
               00113         ENC_EOT
32F4 FFFF          M         dw      0xffff
               00114         ENC_EOT
32F6 FFFF          M         dw      0xffff
               00115         ENC_EOT
32F8 FFFF          M         dw      0xffff
               00116         ENC_EOT
32FA FFFF          M         dw      0xffff
               00117         ENC_EOT
32FC FFFF          M         dw      0xffff
               00118         ENC_EOT
32FE FFFF          M         dw      0xffff
               00119 
               00075 #endif
               00076 
               00077         org     0x3300          ; never change the origin!
               00078 
               00079 ; Don't enable this --- its only used by a special testcase which checks 
               00080 ; parameter passing on functions which are difficult to verify with
               00081 ; directed tests
               00082 #ifndef PARAMETER_PASSING_TEST
               00083 #define PARAMETER_PASSING_TEST 0
               00084 #endif
               00085 
               00086 ;; ==========================================================================
               00087 ;;  Export MIOS variables
               00088 ;; ==========================================================================
               00089         global  _MIOS_BOX_CFG0
               00090         global  _MIOS_BOX_CFG1
               00091         global  _MIOS_BOX_STAT
               00092         global  _MIOS_PARAMETER1
               00093         global  _MIOS_PARAMETER2
               00094         global  _MIOS_PARAMETER3
               00095 
gpasm-0.13.4 beta               /home/this/mios/trunk/modules/mios_wrapper/mios_wrapper.asm10-29-2008  12:57:15         PAGE 28


LOC  OBJECT CODE     LINE SOURCE TEXT
  VALUE
 
               00096 MIOS_VARIABLES          udata   0x0000
               00097 _MIOS_BOX_CFG0          res     1
               00098 _MIOS_BOX_CFG1          res     1
               00099 _MIOS_BOX_STAT          res     1
               00100 _MIOS_PARAMETER1        res     1
               00101 _MIOS_PARAMETER2        res     1
               00102 _MIOS_PARAMETER3        res     1
               00103 _TMP1                   res     1
               00104 _TMP2                   res     1
               00105 _TMP3                   res     1
               00106 _TMP4                   res     1
               00107 _TMP5                   res     1
               00108 _IRQ_TMP1               res     1
               00109 _IRQ_TMP2               res     1
               00110 _IRQ_TMP3               res     1
               00111 _IRQ_TMP4               res     1
               00112 _IRQ_TMP5               res     1
               00113 
               00114 
               00115 ;; ==========================================================================
               00116 ;;  USER_LCD_* vectors defined externally in $MIOS_PATH/modules/app_lcd/*/*.asm
               00117 ;; ==========================================================================
               00118         extern  USER_LCD_Init
               00119         extern  USER_LCD_Data
               00120         extern  USER_LCD_Cmd
               00121         extern  USER_LCD_Clear
               00122         extern  USER_LCD_CursorSet
               00123         extern  USER_LCD_PrintChar
               00124         extern  USER_LCD_SpecialCharInit
               00125 
               00126 
               00127 ;; ==========================================================================
               00128 ;;  All MIOS hooks in one file
               00129 ;; ==========================================================================
               00130 
               00131 MIOS_WRAPPER_CODE       code
               00132 
               00133 ;; --------------------------------------------------------------------------
               00134 ;;  This function is called by MIOS after startup to initialize the 
               00135 ;;  application
               00136 ;; --------------------------------------------------------------------------
0000           00137 USER_Init
               00138         extern  _Init
               00139 
0000 EE03 F07F 00140         lfsr    FSR0, STACK_HEAD        ; initialize stack
0004 EE23 F07F 00141         lfsr    FSR2, STACK_HEAD
0008 EF00 F000 00142         goto    _Init   
               00143 
               00144 
               00145 ;; --------------------------------------------------------------------------
               00146 ;;  This function is called by MIOS in the mainloop when nothing else is to do
               00147 ;; --------------------------------------------------------------------------
000C           00148 USER_Tick
               00149         extern  _Tick
gpasm-0.13.4 beta               /home/this/mios/trunk/modules/mios_wrapper/mios_wrapper.asm10-29-2008  12:57:15         PAGE 29


LOC  OBJECT CODE     LINE SOURCE TEXT
  VALUE
 
               00150 
000C EE03 F07F 00151         lfsr    FSR0, STACK_HEAD        ; initialize stack
0010 EE23 F07F 00152         lfsr    FSR2, STACK_HEAD
0014 EF00 F000 00153         goto    _Tick
               00154 
               00155 
               00156 ;; --------------------------------------------------------------------------
               00157 ;;  This function is periodically called by MIOS. The frequency has to be
               00158 ;;  initialized with MIOS_Timer_Set
               00159 ;;  Note that this is an interrupt service routine! Use FSR2 instead of FSR0
               00160 ;;  and IRQ_TMPx instead of TMPx -- and make the routine as fast as possible!
               00161 ;; --------------------------------------------------------------------------
0018           00162 USER_Timer
               00163         extern  _Timer
               00164 
0018 EE23 F03F 00165         lfsr    FSR2, STACK_IRQ_HEAD    ; initialize IRQ stack
001C CFE9 FFDD 00166         movff   FSR0L, POSTDEC2         ; save FSR0[LH] on IRQ stack
0020 CFEA FFDD 00167         movff   FSR0H, POSTDEC2
0024 EE03 F03D 00168         lfsr    FSR0, STACK_IRQ_HEAD-2  ; write stack pointer also to FSR0
0028 EC00 F000 00169         call    _Timer                  ; call C hook
002C C33F FFE9 00170         movff   STACK_IRQ_HEAD-0, FSR0L ; restore FSR0[LH] directly from memory (more fail save)
0030 C33E FFEA 00171         movff   STACK_IRQ_HEAD-1, FSR0H ; restore FSR0[LH] directly from memory (more fail save)
0034 0012      00172         return
               00173 
               00174 
               00175 ;; --------------------------------------------------------------------------
               00176 ;;  This function is called by MIOS when a debug command has been received
               00177 ;;  via SysEx
               00178 ;;  Input:
               00179 ;;     o WREG, MIOS_PARAMETER1, MIOS_PARAMETER2, MIOS_PARAMETER3 like
               00180 ;;       specified in the debug command
               00181 ;;  Output:
               00182 ;;     o return values WREG, MIOS_PARAMETER1, MIOS_PARAMETER2, MIOS_PARAMETER3
               00183 ;; --------------------------------------------------------------------------
0036           00184 USER_MPROC_DebugTrigger
               00185         ;; not really required for C programs
0036 0012      00186         return
               00187 
               00188 
               00189 ;; --------------------------------------------------------------------------
               00190 ;;  This function is called by MIOS when the display content should be 
               00191 ;;  initialized. Thats the case during startup and after a temporary message
               00192 ;;  has been printed on the screen
               00193 ;; --------------------------------------------------------------------------
0038           00194 USER_DISPLAY_Init
               00195         extern  _DISPLAY_Init
               00196 
0038 EE03 F07F 00197         lfsr    FSR0, STACK_HEAD        ; initialize stack
003C EE23 F07F 00198         lfsr    FSR2, STACK_HEAD
0040 EF00 F000 00199         goto    _DISPLAY_Init
               00200 
               00201 ;; --------------------------------------------------------------------------
               00202 ;;  This function is called in the mainloop when no temporary message is shown
               00203 ;;  on screen. Print the realtime messages here
gpasm-0.13.4 beta               /home/this/mios/trunk/modules/mios_wrapper/mios_wrapper.asm10-29-2008  12:57:15         PAGE 30


LOC  OBJECT CODE     LINE SOURCE TEXT
  VALUE
 
               00204 ;; --------------------------------------------------------------------------
0044           00205 USER_DISPLAY_Tick
               00206         extern  _DISPLAY_Tick
               00207 
0044 EE03 F07F 00208         lfsr    FSR0, STACK_HEAD        ; initialize stack
0048 EE23 F07F 00209         lfsr    FSR2, STACK_HEAD
004C EF00 F000 00210         goto    _DISPLAY_Tick
               00211 
               00212 
               00213 ;; --------------------------------------------------------------------------
               00214 ;;  This function is called by MIOS when a complete MIDI event has been received
               00215 ;;  Input:
               00216 ;;     o first  MIDI event byte in MIOS_PARAMETER1
               00217 ;;     o second MIDI event byte in MIOS_PARAMETER2
               00218 ;;     o third  MIDI event byte in MIOS_PARAMETER3
               00219 ;; --------------------------------------------------------------------------
0050           00220 USER_MPROC_NotifyReceivedEvent
               00221         extern  _MPROC_NotifyReceivedEvnt
               00222 
0050 EE03 F07F 00223         lfsr    FSR0, STACK_HEAD        ; initialize stack
0054 EE23 F07F 00224         lfsr    FSR2, STACK_HEAD
               00225 
0058 C005 FFED 00226         movff   MIOS_PARAMETER3, POSTDEC0
005C C004 FFED 00227         movff   MIOS_PARAMETER2, POSTDEC0
0060 5003      00228         movf    MIOS_PARAMETER1, W
0062 EF00 F000 00229         goto    _MPROC_NotifyReceivedEvnt
               00230 
               00231 
               00232 ;; --------------------------------------------------------------------------
               00233 ;;  This function is called by MIOS when a MIDI event has been received
               00234 ;;  which has been specified in the CONFIG_MIDI_IN table
               00235 ;;  Input:
               00236 ;;     o number of entry in WREG
               00237 ;;     o first  MIDI event byte in MIOS_PARAMETER1
               00238 ;;     o second MIDI event byte in MIOS_PARAMETER2
               00239 ;;     o third  MIDI event byte in MIOS_PARAMETER3
               00240 ;; --------------------------------------------------------------------------
0066           00241 USER_MPROC_NotifyFoundEvent
               00242         extern  _MPROC_NotifyFoundEvent
               00243 
0066 EE03 F07F 00244         lfsr    FSR0, STACK_HEAD        ; initialize stack
006A EE23 F07F 00245         lfsr    FSR2, STACK_HEAD
               00246 
006E C005 FFED 00247         movff   MIOS_PARAMETER3, POSTDEC0
0072 C004 FFED 00248         movff   MIOS_PARAMETER2, POSTDEC0
0076 C003 FFED 00249         movff   MIOS_PARAMETER1, POSTDEC0
007A 6EED      00250         movwf   POSTDEC0                ; TK: required for SDCC 2.5.0, don't know why...
               00251         ;; entry number still in wreg
007C EF00 F000 00252         goto    _MPROC_NotifyFoundEvent
               00253 
               00254 
               00255 ;; --------------------------------------------------------------------------
               00256 ;;  This function is called by MIOS when a MIDI event has not been completly
               00257 ;;  received within 2 seconds
gpasm-0.13.4 beta               /home/this/mios/trunk/modules/mios_wrapper/mios_wrapper.asm10-29-2008  12:57:15         PAGE 31


LOC  OBJECT CODE     LINE SOURCE TEXT
  VALUE
 
               00258 ;; --------------------------------------------------------------------------
0080           00259 USER_MPROC_NotifyTimeout
               00260         extern  _MPROC_NotifyTimeout
               00261 
0080 EE03 F07F 00262         lfsr    FSR0, STACK_HEAD        ; initialize stack
0084 EE23 F07F 00263         lfsr    FSR2, STACK_HEAD
0088 EF00 F000 00264         goto    _MPROC_NotifyTimeout
               00265 
               00266 
               00267 ;; --------------------------------------------------------------------------
               00268 ;;  This function is called by MIOS when a MIDI byte has been received
               00269 ;;  Input:
               00270 ;;     o received MIDI byte in WREG and MIOS_PARAMETER1
               00271 ;; --------------------------------------------------------------------------
008C           00272 USER_MPROC_NotifyReceivedByte
               00273         extern  _MPROC_NotifyReceivedByte
               00274 
008C EE03 F07F 00275         lfsr    FSR0, STACK_HEAD        ; initialize stack
0090 EE23 F07F 00276         lfsr    FSR2, STACK_HEAD
               00277 
               00278         ;; MIDI byte still in WREG
0094 EF00 F000 00279         goto    _MPROC_NotifyReceivedByte
               00280 
               00281 ;; --------------------------------------------------------------------------
               00282 ;;  This function is called by MIOS before the transfer of a MIDI byte. 
               00283 ;;  It can be used to monitor the Tx activity or to do any other actions
               00284 ;;  (e.g. to switch a pin for multiplexed MIDI Outs) before the byte will 
               00285 ;;  be sent.
               00286 ;;  Note that this is an interrupt service routine! Use FSR2 instead of FSR0
               00287 ;;  and IRQ_TMPx instead of TMPx -- and make the routine as fast as possible!
               00288 ;;  Input:
               00289 ;;     o transmitted byte in WREG
               00290 ;; --------------------------------------------------------------------------
0098           00291 USER_MIDI_NotifyTx
               00292         ;; too time consuming for C programs --- should be handled so fast as
               00293         ;; possible and therefore serviced in assembler
               00294 
               00295         ;; disabled by default
               00296         ;; enable it if external function is available
               00297 #ifdef ENABLE_MIDI_NOTIFY_TX
               00298         extern  _MIDI_NotifyTx
               00299         goto    _MIDI_NotifyTx
               00300 #else
0098 0012      00301         return
               00302 #endif
               00303 
               00304 ;; --------------------------------------------------------------------------
               00305 ;;  This function is called by MIOS when a MIDI byte has been received.
               00306 ;;  It can be used to monitor the Rx activity or to do any action - e.g.
               00307 ;;  to react on realtime events like MIDI clock (0xf8) with a minimum latency
               00308 ;;  Note that this is an interrupt service routine! Use FSR2 instead of FSR0
               00309 ;;  and IRQ_TMPx instead of TMPx -- and make the routine as fast as possible!
               00310 ;;  Input:
               00311 ;;     o received byte in WREG
gpasm-0.13.4 beta               /home/this/mios/trunk/modules/mios_wrapper/mios_wrapper.asm10-29-2008  12:57:15         PAGE 32


LOC  OBJECT CODE     LINE SOURCE TEXT
  VALUE
 
               00312 ;; --------------------------------------------------------------------------
009A           00313 USER_MIDI_NotifyRx
               00314         ;; too time consuming for C programs --- should be handled so fast as
               00315         ;; possible and therefore serviced in assembler
               00316 
               00317         ;; disabled by default
               00318         ;; enable it if external function is available
               00319 #ifdef ENABLE_MIDI_NOTIFY_RX
               00320         extern  _MIDI_NotifyRx
               00321         goto    _MIDI_NotifyRx
               00322 #else
009A 0012      00323         return
               00324 #endif
               00325 
               00326 ;; --------------------------------------------------------------------------
               00327 ;;  This function is called by MIOS when an button has been toggled
               00328 ;;  Input:
               00329 ;;     o Button number in WREG and MIOS_PARAMETER1
               00330 ;;     o Button value MIOS_PARAMETER2:
               00331 ;;       - 1 if button has been released (=5V)
               00332 ;;       - 0 if button has been pressed (=0V)
               00333 ;; --------------------------------------------------------------------------
009C           00334 USER_DIN_NotifyToggle
               00335         extern  _DIN_NotifyToggle
               00336 
009C EE03 F07F 00337         lfsr    FSR0, STACK_HEAD        ; initialize stack
00A0 EE23 F07F 00338         lfsr    FSR2, STACK_HEAD
               00339 
00A4 C004 FFED 00340         movff   MIOS_PARAMETER2, POSTDEC0
               00341         ;; button number still in WREG
00A8 EF00 F000 00342         goto    _DIN_NotifyToggle
               00343 
               00344 
               00345 ;; --------------------------------------------------------------------------
               00346 ;;  This function is called by MIOS when an encoder has been moved
               00347 ;;  Input:
               00348 ;;     o Encoder number in WREG and MIOS_PARAMETER1
               00349 ;;     o signed incrementer value in MIOS_PARAMETER2:
               00350 ;;       - is positive when encoder has been turned clockwise
               00351 ;;       - is negative when encoder has been turned counter clockwise
               00352 ;; --------------------------------------------------------------------------
00AC           00353 USER_ENC_NotifyChange
               00354         extern  _ENC_NotifyChange
               00355 
00AC EE03 F07F 00356         lfsr    FSR0, STACK_HEAD        ; initialize stack
00B0 EE23 F07F 00357         lfsr    FSR2, STACK_HEAD
               00358 
00B4 C004 FFED 00359         movff   MIOS_PARAMETER2, POSTDEC0
               00360         ;; encoder number still in WREG
00B8 EF00 F000 00361         goto    _ENC_NotifyChange
               00362 
               00363 
               00364 ;; --------------------------------------------------------------------------
               00365 ;;  This function is called by MIOS before the shift register are loaded
gpasm-0.13.4 beta               /home/this/mios/trunk/modules/mios_wrapper/mios_wrapper.asm10-29-2008  12:57:15         PAGE 33


LOC  OBJECT CODE     LINE SOURCE TEXT
  VALUE
 
               00366 ;;  Note that this is an interrupt service routine! Use FSR2 instead of FSR0
               00367 ;;  and IRQ_TMPx instead of TMPx -- and make the routine as fast as possible
               00368 ;; --------------------------------------------------------------------------
00BC           00369 USER_SR_Service_Prepare
               00370         extern  _SR_Service_Prepare
               00371 
00BC EE23 F03F 00372         lfsr    FSR2, STACK_IRQ_HEAD    ; initialize IRQ stack
00C0 CFE9 FFDD 00373         movff   FSR0L, POSTDEC2         ; save FSR0[LH] on IRQ stack
00C4 CFEA FFDD 00374         movff   FSR0H, POSTDEC2
00C8 EE03 F03D 00375         lfsr    FSR0, STACK_IRQ_HEAD-2  ; write stack pointer also to FSR0
00CC EC00 F000 00376         call    _SR_Service_Prepare     ; call C hook
00D0 C33F FFE9 00377         movff   STACK_IRQ_HEAD-0, FSR0L ; restore FSR0[LH] directly from memory (more fail save)
00D4 C33E FFEA 00378         movff   STACK_IRQ_HEAD-1, FSR0H ; restore FSR0[LH] directly from memory (more fail save)
00D8 0012      00379         return
               00380 
               00381 
               00382 ;; --------------------------------------------------------------------------
               00383 ;;  This function is called by MIOS after the shift register have been loaded
               00384 ;;  Note that this is an interrupt service routine! Use FSR2 instead of FSR0
               00385 ;;  and IRQ_TMPx instead of TMPx -- and make the routine as fast as possible
               00386 ;; --------------------------------------------------------------------------
00DA           00387 USER_SR_Service_Finish
               00388         extern  _SR_Service_Finish
               00389 
00DA EE23 F03F 00390         lfsr    FSR2, STACK_IRQ_HEAD    ; initialize IRQ stack
00DE CFE9 FFDD 00391         movff   FSR0L, POSTDEC2         ; save FSR0[LH] on IRQ stack
00E2 CFEA FFDD 00392         movff   FSR0H, POSTDEC2
00E6 EE03 F03D 00393         lfsr    FSR0, STACK_IRQ_HEAD-2  ; write stack pointer also to FSR0
00EA EC00 F000 00394         call    _SR_Service_Finish      ; call C hook
00EE C33F FFE9 00395         movff   STACK_IRQ_HEAD-0, FSR0L ; restore FSR0[LH] directly from memory (more fail save)
00F2 C33E FFEA 00396         movff   STACK_IRQ_HEAD-1, FSR0H ; restore FSR0[LH] directly from memory (more fail save)
00F6 0012      00397         return
               00398 
               00399 ;; --------------------------------------------------------------------------
               00400 ;;  This function is called by MIOS when a pot has been moved
               00401 ;;  Input:
               00402 ;;     o Pot number in WREG and MIOS_PARAMETER1
               00403 ;;     o LSB value in MIOS_PARAMETER2
               00404 ;;     o MSB value in MIOS_PARAMETER3
               00405 ;; --------------------------------------------------------------------------
00F8           00406 USER_AIN_NotifyChange
               00407         extern  _AIN_NotifyChange
               00408 
00F8 EE03 F07F 00409         lfsr    FSR0, STACK_HEAD        ; initialize stack
00FC EE23 F07F 00410         lfsr    FSR2, STACK_HEAD
               00411 
0100 C005 FFED 00412         movff   MIOS_PARAMETER3, POSTDEC0
0104 C004 FFED 00413         movff   MIOS_PARAMETER2, POSTDEC0
               00414         ;; pot number still in WREG
0108 EF00 F000 00415         goto    _AIN_NotifyChange
               00416 
               00417 
               00418 
               00419 ;; --------------------------------------------------------------------------
gpasm-0.13.4 beta               /home/this/mios/trunk/modules/mios_wrapper/mios_wrapper.asm10-29-2008  12:57:15         PAGE 34


LOC  OBJECT CODE     LINE SOURCE TEXT
  VALUE
 
               00420 ;; ==========================================================================
               00421 ;;  LINKS TO THE MIOS FUNCTIONS
               00422 ;; ==========================================================================
               00423 ;; --------------------------------------------------------------------------
               00424 
               00425 .MIOS_MIDI_BeginStream code MIOS_MIDI_BeginStream
2C00           00426 _MIOS_MIDI_BeginStream
               00427         global  _MIOS_MIDI_BeginStream
               00428 
               00429 ;; --------------------------------------------------------------------------
               00430 .MIOS_MIDI_DeviceIDAutoSet code MIOS_MIDI_DeviceIDAutoSet
2C04           00431 _MIOS_MIDI_DeviceIDAutoSet
               00432         global  _MIOS_MIDI_DeviceIDAutoSet
               00433 
               00434 ;; --------------------------------------------------------------------------
               00435 .MIOS_MIDI_DeviceIDGet code MIOS_MIDI_DeviceIDGet
2C08           00436 _MIOS_MIDI_DeviceIDGet
               00437         global  _MIOS_MIDI_DeviceIDGet
               00438 
               00439 ;; --------------------------------------------------------------------------
               00440 .MIOS_MIDI_DeviceIDSet code MIOS_MIDI_DeviceIDSet
2C0C           00441 _MIOS_MIDI_DeviceIDSet
               00442         global  _MIOS_MIDI_DeviceIDSet
               00443 
               00444 ;; --------------------------------------------------------------------------
               00445 .MIOS_MIDI_EndStream code MIOS_MIDI_EndStream
2C10           00446 _MIOS_MIDI_EndStream
               00447         global  _MIOS_MIDI_EndStream
               00448 
               00449 ;; --------------------------------------------------------------------------
               00450 .MIOS_MIDI_Init code MIOS_MIDI_Init
2C14           00451 _MIOS_MIDI_Init
               00452         global  _MIOS_MIDI_Init
               00453 
               00454 ;; --------------------------------------------------------------------------
               00455 .MIOS_MIDI_InterfaceAutoSet code MIOS_MIDI_InterfaceAutoSet
2C18           00456 _MIOS_MIDI_InterfaceAutoSet
               00457         global  _MIOS_MIDI_InterfaceAutoSet
               00458 
               00459 ;; --------------------------------------------------------------------------
               00460 .MIOS_MIDI_InterfaceGet code MIOS_MIDI_InterfaceGet
2C1C           00461 _MIOS_MIDI_InterfaceGet
               00462         global  _MIOS_MIDI_InterfaceGet
               00463 
               00464 ;; --------------------------------------------------------------------------
               00465 .MIOS_MIDI_InterfaceSet code MIOS_MIDI_InterfaceSet
2C20           00466 _MIOS_MIDI_InterfaceSet
               00467         global  _MIOS_MIDI_InterfaceSet
               00468 
               00469 ;; --------------------------------------------------------------------------
               00470 .MIOS_MIDI_MergerGet code MIOS_MIDI_MergerGet
2C24           00471 _MIOS_MIDI_MergerGet
               00472         global  _MIOS_MIDI_MergerGet
               00473 
gpasm-0.13.4 beta               /home/this/mios/trunk/modules/mios_wrapper/mios_wrapper.asm10-29-2008  12:57:15         PAGE 35


LOC  OBJECT CODE     LINE SOURCE TEXT
  VALUE
 
               00474 ;; --------------------------------------------------------------------------
               00475 .MIOS_MIDI_MergerSet code MIOS_MIDI_MergerSet
2C28           00476 _MIOS_MIDI_MergerSet
               00477         global  _MIOS_MIDI_MergerSet
               00478 
               00479 ;; --------------------------------------------------------------------------
               00480 .MIOS_MIDI_RxBufferFree code MIOS_MIDI_RxBufferFree
2C2C           00481 _MIOS_MIDI_RxBufferFree
               00482         global  _MIOS_MIDI_RxBufferFree
               00483 
               00484 ;; --------------------------------------------------------------------------
               00485 .MIOS_MIDI_RxBufferGet code MIOS_MIDI_RxBufferGet
2C30           00486 _MIOS_MIDI_RxBufferGet
               00487         global  _MIOS_MIDI_RxBufferGet
               00488 
               00489 ;; --------------------------------------------------------------------------
               00490 .MIOS_MIDI_RxBufferPut code MIOS_MIDI_RxBufferPut
2C34           00491 _MIOS_MIDI_RxBufferPut
               00492         global  _MIOS_MIDI_RxBufferPut
               00493 
               00494 ;; --------------------------------------------------------------------------
               00495 .MIOS_MIDI_RxBufferUsed code MIOS_MIDI_RxBufferUsed
2C38           00496 _MIOS_MIDI_RxBufferUsed
               00497         global  _MIOS_MIDI_RxBufferUsed
               00498 
               00499 ;; --------------------------------------------------------------------------
               00500 .MIOS_MIDI_TxBufferFlush code MIOS_MIDI_TxBufferFlush
2C3C           00501 _MIOS_MIDI_TxBufferFlush
               00502         global  _MIOS_MIDI_TxBufferFlush
               00503 
               00504 ;; --------------------------------------------------------------------------
               00505 .MIOS_MIDI_TxBufferFree code MIOS_MIDI_TxBufferFree
2C40           00506 _MIOS_MIDI_TxBufferFree
               00507         global  _MIOS_MIDI_TxBufferFree
               00508 
               00509 ;; --------------------------------------------------------------------------
               00510 .MIOS_MIDI_TxBufferGet code MIOS_MIDI_TxBufferGet
2C44           00511 _MIOS_MIDI_TxBufferGet
               00512         global  _MIOS_MIDI_TxBufferGet
               00513 
               00514 ;; --------------------------------------------------------------------------
               00515 .MIOS_MIDI_TxBufferPut code MIOS_MIDI_TxBufferPut
2C48           00516 _MIOS_MIDI_TxBufferPut
               00517         global  _MIOS_MIDI_TxBufferPut
               00518 
               00519 ;; --------------------------------------------------------------------------
               00520 .MIOS_MIDI_TxBufferUsed code MIOS_MIDI_TxBufferUsed
2C4C           00521 _MIOS_MIDI_TxBufferUsed
               00522         global  _MIOS_MIDI_TxBufferUsed
               00523 
               00524 ;; --------------------------------------------------------------------------
               00525 .MIOS_MPROC_MergerDisable code MIOS_MPROC_MergerDisable
2C50           00526 _MIOS_MPROC_MergerDisable
               00527         global  _MIOS_MPROC_MergerDisable
gpasm-0.13.4 beta               /home/this/mios/trunk/modules/mios_wrapper/mios_wrapper.asm10-29-2008  12:57:15         PAGE 36


LOC  OBJECT CODE     LINE SOURCE TEXT
  VALUE
 
               00528 
               00529 ;; --------------------------------------------------------------------------
               00530 .MIOS_MPROC_MergerEnable code MIOS_MPROC_MergerEnable
2C54           00531 _MIOS_MPROC_MergerEnable
               00532         global  _MIOS_MPROC_MergerEnable
               00533 
               00534 ;; --------------------------------------------------------------------------
               00535 .MIOS_MPROC_MergerGet code MIOS_MPROC_MergerGet
2C58           00536 _MIOS_MPROC_MergerGet
               00537         global  _MIOS_MPROC_MergerGet
               00538 
               00539 ;; --------------------------------------------------------------------------
               00540 .MIOS_AIN_DeadbandGet code MIOS_AIN_DeadbandGet
2C5C           00541 _MIOS_AIN_DeadbandGet
               00542         global  _MIOS_AIN_DeadbandGet
               00543 
               00544 ;; --------------------------------------------------------------------------
               00545 .MIOS_AIN_DeadbandSet code MIOS_AIN_DeadbandSet
2C60           00546 _MIOS_AIN_DeadbandSet
               00547         global  _MIOS_AIN_DeadbandSet
               00548 
               00549 ;; --------------------------------------------------------------------------
               00550 .MIOS_AIN_Muxed code MIOS_AIN_Muxed
2C64           00551 _MIOS_AIN_Muxed
               00552         global  _MIOS_AIN_Muxed
               00553 
               00554 ;; --------------------------------------------------------------------------
               00555 .MIOS_AIN_NumberGet code MIOS_AIN_NumberGet
2C68           00556 _MIOS_AIN_NumberGet
               00557         global  _MIOS_AIN_NumberGet
               00558 
               00559 ;; --------------------------------------------------------------------------
               00560 .MIOS_AIN_NumberSet code MIOS_AIN_NumberSet
2C6C           00561 _MIOS_AIN_NumberSet
               00562         global  _MIOS_AIN_NumberSet
               00563 
               00564 ;; --------------------------------------------------------------------------
               00565 .MIOS_AIN_Pin7bitGet code MIOS_AIN_Pin7bitGet
2C70           00566 _MIOS_AIN_Pin7bitGet
               00567         global  _MIOS_AIN_Pin7bitGet
               00568 
               00569 ;; --------------------------------------------------------------------------
               00570 .MIOS_AIN_PinGet code
0000           00571 _MIOS_AIN_PinGet
               00572         global  _MIOS_AIN_PinGet
               00573 
0000 EC3A F016 00574         call    MIOS_AIN_PinGet
0004 C004 FFF3 00575         movff   MIOS_PARAMETER2, PRODL  ; high byte -> PRODL
0008 0012      00576         return                          ; low byte already in WREG
               00577 
               00578 ;; --------------------------------------------------------------------------
               00579 .MIOS_AIN_PinLSBGet code MIOS_AIN_PinLSBGet
2C78           00580 _MIOS_AIN_PinLSBGet
               00581         global  _MIOS_AIN_PinLSBGet
gpasm-0.13.4 beta               /home/this/mios/trunk/modules/mios_wrapper/mios_wrapper.asm10-29-2008  12:57:15         PAGE 37


LOC  OBJECT CODE     LINE SOURCE TEXT
  VALUE
 
               00582 
               00583 ;; --------------------------------------------------------------------------
               00584 .MIOS_AIN_PinMSBGet code MIOS_AIN_PinMSBGet
2C7C           00585 _MIOS_AIN_PinMSBGet
               00586         global  _MIOS_AIN_PinMSBGet
               00587 
               00588 ;; --------------------------------------------------------------------------
               00589 .MIOS_AIN_UnMuxed code MIOS_AIN_UnMuxed
2C80           00590 _MIOS_AIN_UnMuxed
               00591         global  _MIOS_AIN_UnMuxed
               00592 
               00593 ;; --------------------------------------------------------------------------
               00594 .MIOS_MF_PWM_DutyCycleDownGet code MIOS_MF_PWM_DutyCycleDownGet
2C84           00595 _MIOS_MF_PWM_DutyCycleDownGet
               00596         global  _MIOS_MF_PWM_DutyCycleDownGet
               00597 
               00598 ;; --------------------------------------------------------------------------
               00599 .MIOS_MF_PWM_DutyCycleDownSet code MIOS_MF_PWM_DutyCycleDownSet
2C88           00600 _MIOS_MF_PWM_DutyCycleDownSet
               00601         global  _MIOS_MF_PWM_DutyCycleDownSet
               00602 
               00603 ;; --------------------------------------------------------------------------
               00604 .MIOS_MF_PWM_DutyCycleUpGet code MIOS_MF_PWM_DutyCycleUpGet
2C8C           00605 _MIOS_MF_PWM_DutyCycleUpGet
               00606         global  _MIOS_MF_PWM_DutyCycleUpGet
               00607 
               00608 ;; --------------------------------------------------------------------------
               00609 .MIOS_MF_PWM_DutyCycleUpSet code MIOS_MF_PWM_DutyCycleUpSet
2C90           00610 _MIOS_MF_PWM_DutyCycleUpSet
               00611         global  _MIOS_MF_PWM_DutyCycleUpSet
               00612 
               00613 ;; --------------------------------------------------------------------------
               00614 .MIOS_MF_DeadbandGet code MIOS_MF_DeadbandGet
2C94           00615 _MIOS_MF_DeadbandGet
               00616         global  _MIOS_MF_DeadbandGet
               00617 
               00618 ;; --------------------------------------------------------------------------
               00619 .MIOS_MF_DeadbandSet code MIOS_MF_DeadbandSet
2C98           00620 _MIOS_MF_DeadbandSet
               00621         global  _MIOS_MF_DeadbandSet
               00622 
               00623 ;; --------------------------------------------------------------------------
               00624 .MIOS_MF_Disable code MIOS_MF_Disable
2C9C           00625 _MIOS_MF_Disable
               00626         global  _MIOS_MF_Disable
               00627 
               00628 ;; --------------------------------------------------------------------------
               00629 .MIOS_MF_Enable code MIOS_MF_Enable
2CA0           00630 _MIOS_MF_Enable
               00631         global  _MIOS_MF_Enable
               00632 
               00633 ;; --------------------------------------------------------------------------
               00634 .MIOS_MF_FaderMove code
0000           00635 _MIOS_MF_FaderMove
gpasm-0.13.4 beta               /home/this/mios/trunk/modules/mios_wrapper/mios_wrapper.asm10-29-2008  12:57:15         PAGE 38


LOC  OBJECT CODE     LINE SOURCE TEXT
  VALUE
 
               00636         global  _MIOS_MF_FaderMove
               00637 
0000 CFE9 FFD9 00638         movff   FSR0L, FSR2L
0004 CFDC F003 00639         movff   PREINC2, MIOS_PARAMETER1
0008 CFDC F004 00640         movff   PREINC2, MIOS_PARAMETER2
000C EF52 F016 00641         goto    MIOS_MF_FaderMove
               00642 
               00643 ;; --------------------------------------------------------------------------
               00644 .MIOS_MF_SuspendDisable code MIOS_MF_SuspendDisable
2CA8           00645 _MIOS_MF_SuspendDisable
               00646         global  _MIOS_MF_SuspendDisable
               00647 
               00648 ;; --------------------------------------------------------------------------
               00649 .MIOS_MF_SuspendEnable code MIOS_MF_SuspendEnable
2CAC           00650 _MIOS_MF_SuspendEnable
               00651         global  _MIOS_MF_SuspendEnable
               00652 
               00653 ;; --------------------------------------------------------------------------
               00654 .MIOS_MF_SuspendGet code MIOS_MF_SuspendGet
2CB0           00655 _MIOS_MF_SuspendGet
               00656         global  _MIOS_MF_SuspendGet
               00657 
               00658 ;; --------------------------------------------------------------------------
               00659 .MIOS_MF_PWM_PeriodGet code MIOS_MF_PWM_PeriodGet
2DFC           00660 _MIOS_MF_PWM_PeriodGet
               00661         global  _MIOS_MF_PWM_PeriodGet
               00662 
               00663 ;; --------------------------------------------------------------------------
               00664 .MIOS_MF_PWM_PeriodSet code MIOS_MF_PWM_PeriodSet
2E00           00665 _MIOS_MF_PWM_PeriodSet
               00666         global  _MIOS_MF_PWM_PeriodSet
               00667 
               00668 ;; --------------------------------------------------------------------------
               00669 .MIOS_MF_TouchDetectionReset code MIOS_MF_TouchDetectionReset
2E2C           00670 _MIOS_MF_TouchDetectionReset
               00671         global  _MIOS_MF_TouchDetectionReset
               00672 
               00673 ;; --------------------------------------------------------------------------
               00674 .MIOS_DIN_PinGet code MIOS_DIN_PinGet
2CB4           00675 _MIOS_DIN_PinGet
               00676         global  _MIOS_DIN_PinGet
               00677 
               00678 ;; --------------------------------------------------------------------------
               00679 .MIOS_DIN_SRGet code MIOS_DIN_SRGet
2CB8           00680 _MIOS_DIN_SRGet
               00681         global  _MIOS_DIN_SRGet
               00682 
               00683 ;; --------------------------------------------------------------------------
               00684 .MIOS_DOUT_PinGet code MIOS_DOUT_PinGet
2CBC           00685 _MIOS_DOUT_PinGet
               00686         global  _MIOS_DOUT_PinGet
               00687 
               00688 ;; --------------------------------------------------------------------------
               00689 .MIOS_DOUT_PinSet code
gpasm-0.13.4 beta               /home/this/mios/trunk/modules/mios_wrapper/mios_wrapper.asm10-29-2008  12:57:15         PAGE 39


LOC  OBJECT CODE     LINE SOURCE TEXT
  VALUE
 
0000           00690 _MIOS_DOUT_PinSet
               00691         global  _MIOS_DOUT_PinSet
               00692 
0000 CFE9 FFD9 00693         movff   FSR0L, FSR2L
0004 CFDC F003 00694         movff   PREINC2, MIOS_PARAMETER1
0008 EF60 F016 00695         goto    MIOS_DOUT_PinSet
               00696 
               00697 
               00698 ;; --------------------------------------------------------------------------
               00699 .MIOS_DOUT_PinSet0 code MIOS_DOUT_PinSet0
2CC4           00700 _MIOS_DOUT_PinSet0
               00701         global  _MIOS_DOUT_PinSet0
               00702 
               00703 ;; --------------------------------------------------------------------------
               00704 .MIOS_DOUT_PinSet1 code MIOS_DOUT_PinSet1
2CC8           00705 _MIOS_DOUT_PinSet1
               00706         global  _MIOS_DOUT_PinSet1
               00707 
               00708 ;; --------------------------------------------------------------------------
               00709 .MIOS_DOUT_SRGet code MIOS_DOUT_SRGet
2CCC           00710 _MIOS_DOUT_SRGet
               00711         global  _MIOS_DOUT_SRGet
               00712 
               00713 ;; --------------------------------------------------------------------------
               00714 .MIOS_DOUT_SRSet code
0000           00715 _MIOS_DOUT_SRSet
               00716         global  _MIOS_DOUT_SRSet
               00717         
0000 CFE9 FFD9 00718         movff   FSR0L, FSR2L
0004 CFDC F003 00719         movff   PREINC2, MIOS_PARAMETER1
0008 EF68 F016 00720         goto    MIOS_DOUT_SRSet
               00721 
               00722 ;; --------------------------------------------------------------------------
               00723 .MIOS_ENC_Abs7bitAdd code
0000           00724 _MIOS_ENC_Abs7bitAdd
               00725         global  _MIOS_ENC_Abs7bitAdd
               00726         
0000 CFE9 FFD9 00727         movff   FSR0L, FSR2L
0004 CFDC F003 00728         movff   PREINC2, MIOS_PARAMETER1
0008 EF6A F016 00729         goto    MIOS_ENC_Abs7bitAdd
               00730         
               00731 ;; --------------------------------------------------------------------------
               00732 .MIOS_ENC_Abs7bitGet code MIOS_ENC_Abs7bitGet
2CD8           00733 _MIOS_ENC_Abs7bitGet
               00734         global  _MIOS_ENC_Abs7bitGet
               00735 
               00736 ;; --------------------------------------------------------------------------
               00737 .MIOS_ENC_Abs7bitSet code
0000           00738 _MIOS_ENC_Abs7bitSet
               00739         global  _MIOS_ENC_Abs7bitSet
               00740 
0000 CFE9 FFD9 00741         movff   FSR0L, FSR2L
0004 CFDC F003 00742         movff   PREINC2, MIOS_PARAMETER1
0008 EF6E F016 00743         goto    MIOS_ENC_Abs7bitSet
gpasm-0.13.4 beta               /home/this/mios/trunk/modules/mios_wrapper/mios_wrapper.asm10-29-2008  12:57:15         PAGE 40


LOC  OBJECT CODE     LINE SOURCE TEXT
  VALUE
 
               00744 
               00745 ;; --------------------------------------------------------------------------
               00746 .MIOS_ENC_NumberGet code MIOS_ENC_NumberGet
2CE0           00747 _MIOS_ENC_NumberGet
               00748         global  _MIOS_ENC_NumberGet
               00749 
               00750 ;; --------------------------------------------------------------------------
               00751 .MIOS_ENC_SpeedGet code
0000           00752 _MIOS_ENC_SpeedGet
               00753         global  _MIOS_ENC_SpeedGet
               00754 
0000 CFE9 FFD9 00755         movff   FSR0L, FSR2L
0004 CFDC F003 00756         movff   PREINC2, MIOS_PARAMETER1
0008 EF72 F016 00757         goto    MIOS_ENC_SpeedGet
               00758 
               00759 ;; --------------------------------------------------------------------------
               00760 .MIOS_ENC_SpeedSet code
0000           00761 _MIOS_ENC_SpeedSet
               00762         global  _MIOS_ENC_SpeedSet
               00763 
0000 CFE9 FFD9 00764         movff   FSR0L, FSR2L
0004 CFDC F003 00765         movff   PREINC2, MIOS_PARAMETER1
0008 CFDC F004 00766         movff   PREINC2, MIOS_PARAMETER2
000C EF74 F016 00767         goto    MIOS_ENC_SpeedSet
               00768 
               00769 ;; --------------------------------------------------------------------------
               00770 .MIOS_SRIO_NumberGet code MIOS_SRIO_NumberGet
2CEC           00771 _MIOS_SRIO_NumberGet
               00772         global  _MIOS_SRIO_NumberGet
               00773 
               00774 ;; --------------------------------------------------------------------------
               00775 .MIOS_SRIO_NumberSet code MIOS_SRIO_NumberSet
2CF0           00776 _MIOS_SRIO_NumberSet
               00777         global  _MIOS_SRIO_NumberSet
               00778 
               00779 ;; --------------------------------------------------------------------------
               00780 .MIOS_SRIO_TS_SensitivityGet code MIOS_SRIO_TS_SensitivityGet
2CF4           00781 _MIOS_SRIO_TS_SensitivityGet
               00782         global  _MIOS_SRIO_TS_SensitivityGet
               00783 
               00784 ;; --------------------------------------------------------------------------
               00785 .MIOS_SRIO_TS_SensitivitySet code MIOS_SRIO_TS_SensitivitySet
2CF8           00786 _MIOS_SRIO_TS_SensitivitySet
               00787         global  _MIOS_SRIO_TS_SensitivitySet
               00788 
               00789 ;; --------------------------------------------------------------------------
               00790 .MIOS_SRIO_UpdateFrqGet code MIOS_SRIO_UpdateFrqGet
2CFC           00791 _MIOS_SRIO_UpdateFrqGet
               00792         global  _MIOS_SRIO_UpdateFrqGet
               00793 
               00794 ;; --------------------------------------------------------------------------
               00795 .MIOS_SRIO_UpdateFrqSet code MIOS_SRIO_UpdateFrqSet
2D00           00796 _MIOS_SRIO_UpdateFrqSet
               00797         global  _MIOS_SRIO_UpdateFrqSet
gpasm-0.13.4 beta               /home/this/mios/trunk/modules/mios_wrapper/mios_wrapper.asm10-29-2008  12:57:15         PAGE 41


LOC  OBJECT CODE     LINE SOURCE TEXT
  VALUE
 
               00798 
               00799 ;; --------------------------------------------------------------------------
               00800 .MIOS_SRIO_DebounceGet code MIOS_SRIO_DebounceGet
2E28           00801 _MIOS_SRIO_DebounceGet
               00802         global  _MIOS_SRIO_DebounceGet
               00803 
               00804 ;; --------------------------------------------------------------------------
               00805 .MIOS_SRIO_DebounceSet code MIOS_SRIO_DebounceSet
2E24           00806 _MIOS_SRIO_DebounceSet
               00807         global  _MIOS_SRIO_DebounceSet
               00808 
               00809 ;; --------------------------------------------------------------------------
               00810 .MIOS_LCD_Clear code MIOS_LCD_Clear
2D04           00811 _MIOS_LCD_Clear
               00812         global  _MIOS_LCD_Clear
               00813 
               00814 ;; --------------------------------------------------------------------------
               00815 .MIOS_LCD_Cmd code MIOS_LCD_Cmd
2D08           00816 _MIOS_LCD_Cmd
               00817         global  _MIOS_LCD_Cmd
               00818 
               00819 ;; --------------------------------------------------------------------------
               00820 .MIOS_LCD_CursorGet code MIOS_LCD_CursorGet
2D0C           00821 _MIOS_LCD_CursorGet
               00822         global  _MIOS_LCD_CursorGet
               00823 
               00824 ;; --------------------------------------------------------------------------
               00825 .MIOS_LCD_CursorSet code MIOS_LCD_CursorSet
2D10           00826 _MIOS_LCD_CursorSet
               00827         global  _MIOS_LCD_CursorSet
               00828 
               00829 ;; --------------------------------------------------------------------------
               00830 .MIOS_LCD_Data code MIOS_LCD_Data
2D14           00831 _MIOS_LCD_Data
               00832         global  _MIOS_LCD_Data
               00833 
               00834 ;; --------------------------------------------------------------------------
               00835 .MIOS_LCD_Init code MIOS_LCD_Init
2D18           00836 _MIOS_LCD_Init
               00837         global  _MIOS_LCD_Init
               00838 
               00839 ;; --------------------------------------------------------------------------
               00840 .MIOS_LCD_PrintBCD1 code MIOS_LCD_PrintBCD1
2D1C           00841 _MIOS_LCD_PrintBCD1
               00842         global  _MIOS_LCD_PrintBCD1
               00843 
               00844 ;; --------------------------------------------------------------------------
               00845 .MIOS_LCD_PrintBCD2 code MIOS_LCD_PrintBCD2
2D20           00846 _MIOS_LCD_PrintBCD2
               00847         global  _MIOS_LCD_PrintBCD2
               00848 
               00849 ;; --------------------------------------------------------------------------
               00850 .MIOS_LCD_PrintBCD3 code MIOS_LCD_PrintBCD3
2D24           00851 _MIOS_LCD_PrintBCD3
gpasm-0.13.4 beta               /home/this/mios/trunk/modules/mios_wrapper/mios_wrapper.asm10-29-2008  12:57:15         PAGE 42


LOC  OBJECT CODE     LINE SOURCE TEXT
  VALUE
 
               00852         global  _MIOS_LCD_PrintBCD3
               00853 
               00854 ;; --------------------------------------------------------------------------
               00855 .MIOS_LCD_PrintBCD4 code
0000           00856 _MIOS_LCD_PrintBCD4
               00857         global  _MIOS_LCD_PrintBCD4
               00858 
0000 CFE9 FFD9 00859         movff   FSR0L, FSR2L
0004 CFDC F003 00860         movff   PREINC2, MIOS_PARAMETER1
0008 EFF6 F016 00861         goto    MIOS_LCD_PrintBCD4
               00862 
               00863 ;; --------------------------------------------------------------------------
               00864 .MIOS_LCD_PrintBCD5 code
0000           00865 _MIOS_LCD_PrintBCD5
               00866         global  _MIOS_LCD_PrintBCD5
               00867 
0000 CFE9 FFD9 00868         movff   FSR0L, FSR2L
0004 CFDC F003 00869         movff   PREINC2, MIOS_PARAMETER1
0008 EFF8 F016 00870         goto    MIOS_LCD_PrintBCD5
               00871 
               00872 ;; --------------------------------------------------------------------------
               00873 .MIOS_LCD_PrintChar code MIOS_LCD_PrintChar
2D28           00874 _MIOS_LCD_PrintChar
               00875         global  _MIOS_LCD_PrintChar
               00876 
               00877 ;; --------------------------------------------------------------------------
               00878 .MIOS_LCD_PrintHex1 code MIOS_LCD_PrintHex1
2D2C           00879 _MIOS_LCD_PrintHex1
               00880         global  _MIOS_LCD_PrintHex1
               00881 
               00882 ;; --------------------------------------------------------------------------
               00883 .MIOS_LCD_PrintHex2 code MIOS_LCD_PrintHex2
2D30           00884 _MIOS_LCD_PrintHex2
               00885         global  _MIOS_LCD_PrintHex2
               00886 
               00887 ;; --------------------------------------------------------------------------
               00888 .MIOS_LCD_PrintMessage code
0000           00889 _MIOS_LCD_PrintMessage
               00890         global  _MIOS_LCD_PrintMessage
               00891 
0000 6EF6      00892         movwf   TBLPTRL
0002 CFE9 FFD9 00893         movff   FSR0L, FSR2L
0006 CFDC FFF7 00894         movff   PREINC2, TBLPTRH
000A CFDC FFF8 00895         movff   PREINC2, TBLPTRU
000E EF9A F016 00896         goto    MIOS_LCD_PrintMessage
               00897 
               00898 ;; --------------------------------------------------------------------------
               00899 .MIOS_LCD_PrintPreconfString code
0000           00900 _MIOS_LCD_PrintPreconfString
               00901         global  _MIOS_LCD_PrintPreconfString
               00902 
0000 CFE9 FFD9 00903         movff   FSR0L, FSR2L
0004 CFDC FFF8 00904         movff   PREINC2, TBLPTRU
0008 CFDC FFF7 00905         movff   PREINC2, TBLPTRH
gpasm-0.13.4 beta               /home/this/mios/trunk/modules/mios_wrapper/mios_wrapper.asm10-29-2008  12:57:15         PAGE 43


LOC  OBJECT CODE     LINE SOURCE TEXT
  VALUE
 
000C CFDC FFF6 00906         movff   PREINC2, TBLPTRL
0010 EF9C F016 00907         goto    MIOS_LCD_PrintPreconfString
               00908 
               00909 ;; --------------------------------------------------------------------------
               00910 .MIOS_LCD_PrintString code
0000           00911 _MIOS_LCD_PrintString
               00912         global  _MIOS_LCD_PrintString
               00913 
0000 6EF6      00914         movwf   TBLPTRL
0002 CFE9 FFD9 00915         movff   FSR0L, FSR2L
0006 CFDC FFF7 00916         movff   PREINC2, TBLPTRH
000A CFDC FFF8 00917         movff   PREINC2, TBLPTRU
000E EF9E F016 00918         goto    MIOS_LCD_PrintString
               00919 
               00920 ;; --------------------------------------------------------------------------
               00921 .MIOS_LCD_TypeAutoSet code MIOS_LCD_TypeAutoSet
2D40           00922 _MIOS_LCD_TypeAutoSet
               00923         global  _MIOS_LCD_TypeAutoSet
               00924 
               00925 ;; --------------------------------------------------------------------------
               00926 .MIOS_LCD_TypeGet code MIOS_LCD_TypeGet
2D44           00927 _MIOS_LCD_TypeGet
               00928         global  _MIOS_LCD_TypeGet
               00929 
               00930 ;; --------------------------------------------------------------------------
               00931 .MIOS_LCD_TypeSet code
0000           00932 _MIOS_LCD_TypeSet
               00933         global  _MIOS_LCD_TypeSet
               00934 
0000 CFE9 FFD9 00935         movff   FSR0L, FSR2L
0004 CFDC F003 00936         movff   PREINC2, MIOS_PARAMETER1
0008 CFDC F004 00937         movff   PREINC2, MIOS_PARAMETER2
000C EFA4 F016 00938         goto    MIOS_LCD_TypeSet
               00939 
               00940 ;; --------------------------------------------------------------------------
               00941 .MIOS_LCD_YAddressGet code
0000           00942 _MIOS_LCD_YAddressGet
               00943         global  _MIOS_LCD_YAddressGet
0000 EFA6 F016 00944         goto    MIOS_LCD_YAddressGet
               00945 
               00946 ;; --------------------------------------------------------------------------
               00947 .MIOS_LCD_YAddressSet code
0000           00948 _MIOS_LCD_YAddressSet
               00949         global  _MIOS_LCD_YAddressSet
               00950 
0000 CFE9 FFD9 00951         movff   FSR0L, FSR2L
0004 6E03      00952         movwf   MIOS_PARAMETER1
0006 CFDC F004 00953         movff   PREINC2, MIOS_PARAMETER2
000A CFDC F005 00954         movff   PREINC2, MIOS_PARAMETER3
000E 50DC      00955         movf    PREINC2, W
0010 EFA8 F016 00956         goto    MIOS_LCD_YAddressSet
               00957 
               00958 ;; --------------------------------------------------------------------------
               00959 .MIOS_LCD_MessageStart code MIOS_LCD_MessageStart
gpasm-0.13.4 beta               /home/this/mios/trunk/modules/mios_wrapper/mios_wrapper.asm10-29-2008  12:57:15         PAGE 44


LOC  OBJECT CODE     LINE SOURCE TEXT
  VALUE
 
2DF4           00960 _MIOS_LCD_MessageStart
               00961         global  _MIOS_LCD_MessageStart
               00962 
               00963 ;; --------------------------------------------------------------------------
               00964 .MIOS_LCD_MessageStop code MIOS_LCD_MessageStop
2DF8           00965 _MIOS_LCD_MessageStop
               00966         global  _MIOS_LCD_MessageStop
               00967 
               00968 ;; --------------------------------------------------------------------------
               00969 .MIOS_CLCD_SpecialCharInit code
0000           00970 _MIOS_CLCD_SpecialCharInit
               00971         global  _MIOS_CLCD_SpecialCharInit
               00972 
0000 CFE9 FFD9 00973         movff   FSR0L, FSR2L
0004 CFDC FFF6 00974         movff   PREINC2, TBLPTRL
0008 CFDC FFF7 00975         movff   PREINC2, TBLPTRH
000C CFDC FFF8 00976         movff   PREINC2, TBLPTRU
0010 EFE4 F016 00977         goto    MIOS_CLCD_SpecialCharInit
               00978 
               00979 ;; --------------------------------------------------------------------------
               00980 .MIOS_CLCD_SpecialCharsInit code
0000           00981 _MIOS_CLCD_SpecialCharsInit
               00982         global  _MIOS_CLCD_SpecialCharsInit
               00983 
0000 6EF6      00984         movwf   TBLPTRL
0002 CFE9 FFD9 00985         movff   FSR0L, FSR2L
0006 CFDC FFF7 00986         movff   PREINC2, TBLPTRH
000A CFDC FFF8 00987         movff   PREINC2, TBLPTRU
000E EFE6 F016 00988         goto    MIOS_CLCD_SpecialCharsInit
               00989 
               00990 ;; --------------------------------------------------------------------------
               00991 .MIOS_GLCD_FontInit code
0000           00992 _MIOS_GLCD_FontInit
               00993         global  _MIOS_GLCD_FontInit
               00994 
0000 6EF6      00995         movwf   TBLPTRL
0002 CFE9 FFD9 00996         movff   FSR0L, FSR2L
0006 CFDC FFF7 00997         movff   PREINC2, TBLPTRH
000A CFDC FFF8 00998         movff   PREINC2, TBLPTRU
000E EFAA F016 00999         goto    MIOS_GLCD_FontInit
               01000 
               01001 ;; --------------------------------------------------------------------------
               01002 .MIOS_GLCD_GCursorGet code MIOS_GLCD_GCursorGet
2D58           01003 _MIOS_GLCD_GCursorGet
               01004         global  _MIOS_GLCD_GCursorGet
               01005 
               01006 ;; --------------------------------------------------------------------------
               01007 .MIOS_GLCD_GCursorSet code
0000           01008 _MIOS_GLCD_GCursorSet
               01009         global  _MIOS_GLCD_GCursorSet
               01010 
0000 CFE9 FFD9 01011         movff   FSR0L, FSR2L
0004 CFDC F003 01012         movff   PREINC2, MIOS_PARAMETER1
0008 EFAE F016 01013         goto    MIOS_GLCD_GCursorSet
gpasm-0.13.4 beta               /home/this/mios/trunk/modules/mios_wrapper/mios_wrapper.asm10-29-2008  12:57:15         PAGE 45


LOC  OBJECT CODE     LINE SOURCE TEXT
  VALUE
 
               01014 
               01015 ;; --------------------------------------------------------------------------
               01016 .MIOS_EEPROM_Read code
0000           01017 _MIOS_EEPROM_Read
               01018         global  _MIOS_EEPROM_Read
               01019 
0000 6EA9      01020         movwf   EEADR
0002 EFB0 F016 01021         goto    MIOS_EEPROM_Read
               01022 
               01023 ;; --------------------------------------------------------------------------
               01024 .MIOS_EEPROM_Write code
0000           01025 _MIOS_EEPROM_Write
               01026         global  _MIOS_EEPROM_Write
               01027 
0000 6EA9      01028         movwf   EEADR
0002 CFE9 FFD9 01029         movff   FSR0L, FSR2L
0006 50DC      01030         movf    PREINC2, W
0008 EFB2 F016 01031         goto    MIOS_EEPROM_Write
               01032 
               01033 ;; --------------------------------------------------------------------------
               01034 .MIOS_EEPROM_ReadPage code
0000           01035 _MIOS_EEPROM_ReadPage
               01036         global  _MIOS_EEPROM_ReadPage
               01037 
0000 6EA9      01038         movwf   EEADR
0002 CFE9 FFD9 01039         movff   FSR0L, FSR2L
0006 CFDC FFE1 01040         movff   PREINC2, FSR1L
000A CFDC FFE2 01041         movff   PREINC2, FSR1H
               01042 
               01043 #if PARAMETER_PASSING_TEST
               01044         movlw   0x56
               01045         cpfseq  EEADR, ACCESS
               01046         return
               01047 
               01048         movlw   0x12
               01049         cpfseq  FSR1L, ACCESS
               01050         return
               01051 
               01052         movlw   0x03
               01053         cpfseq  FSR1H, ACCESS
               01054         return
               01055 
               01056         movlw   0x1a
               01057         movwf   MIOS_PARAMETER1
               01058         return
               01059 #endif
               01060 
000E EF1A F017 01061         goto    MIOS_EEPROM_ReadPage
               01062 
               01063 ;; --------------------------------------------------------------------------
               01064 .MIOS_EEPROM_WritePage code
0000           01065 _MIOS_EEPROM_WritePage
               01066         global  _MIOS_EEPROM_WritePage
               01067 
gpasm-0.13.4 beta               /home/this/mios/trunk/modules/mios_wrapper/mios_wrapper.asm10-29-2008  12:57:15         PAGE 46


LOC  OBJECT CODE     LINE SOURCE TEXT
  VALUE
 
0000 6EA9      01068         movwf   EEADR
0002 CFE9 FFD9 01069         movff   FSR0L, FSR2L
0006 CFDC FFE1 01070         movff   PREINC2, FSR1L
000A CFDC FFE2 01071         movff   PREINC2, FSR1H
               01072 
               01073 #if PARAMETER_PASSING_TEST
               01074         movlw   0x56
               01075         cpfseq  EEADR, ACCESS
               01076         return
               01077 
               01078         movlw   0x12
               01079         cpfseq  FSR1L, ACCESS
               01080         return
               01081 
               01082         movlw   0x03
               01083         cpfseq  FSR1H, ACCESS
               01084         return
               01085 
               01086         movlw   0x1a
               01087         movwf   MIOS_PARAMETER1
               01088         return
               01089 #endif
               01090 
000E EF1C F017 01091         goto    MIOS_EEPROM_WritePage
               01092 
               01093 ;; --------------------------------------------------------------------------
               01094 .MIOS_FLASH_Read code
0000           01095 _MIOS_FLASH_Read
               01096         global  _MIOS_FLASH_Read
               01097 
0000 6EF6      01098         movwf   TBLPTRL
0002 CFE9 FFD9 01099         movff   FSR0L, FSR2L
0006 CFDC FFF7 01100         movff   PREINC2, TBLPTRH
000A CFDC FFF8 01101         movff   PREINC2, TBLPTRU
000E CFDC FFE1 01102         movff   PREINC2, FSR1L
0012 CFDC FFE2 01103         movff   PREINC2, FSR1H
               01104 
               01105 #if PARAMETER_PASSING_TEST
               01106         movlw   0x56
               01107         cpfseq  TBLPTRL, ACCESS
               01108         return
               01109 
               01110         movlw   0x78
               01111         cpfseq  TBLPTRH, ACCESS
               01112         return
               01113 
               01114         movlw   0x00
               01115         cpfseq  TBLPTRU, ACCESS
               01116         return
               01117 
               01118         movlw   0x12
               01119         cpfseq  FSR1L, ACCESS
               01120         return
               01121 
gpasm-0.13.4 beta               /home/this/mios/trunk/modules/mios_wrapper/mios_wrapper.asm10-29-2008  12:57:15         PAGE 47


LOC  OBJECT CODE     LINE SOURCE TEXT
  VALUE
 
               01122         movlw   0x03
               01123         cpfseq  FSR1H, ACCESS
               01124         return
               01125 
               01126         movlw   0x1a
               01127         movwf   MIOS_PARAMETER1
               01128         return
               01129 #endif
               01130 
0016 EFB4 F016 01131         goto    MIOS_FLASH_Read
               01132 
               01133 ;; --------------------------------------------------------------------------
               01134 .MIOS_FLASH_Write code
0000           01135 _MIOS_FLASH_Write
               01136         global  _MIOS_FLASH_Write
               01137 
0000 6EF6      01138         movwf   TBLPTRL
0002 CFE9 FFD9 01139         movff   FSR0L, FSR2L
0006 CFDC FFF7 01140         movff   PREINC2, TBLPTRH
000A CFDC FFF8 01141         movff   PREINC2, TBLPTRU
000E CFDC FFE1 01142         movff   PREINC2, FSR1L
0012 CFDC FFE2 01143         movff   PREINC2, FSR1H
               01144 
               01145 #if PARAMETER_PASSING_TEST
               01146         movlw   0x56
               01147         cpfseq  TBLPTRL, ACCESS
               01148         return
               01149 
               01150         movlw   0x78
               01151         cpfseq  TBLPTRH, ACCESS
               01152         return
               01153 
               01154         movlw   0x00
               01155         cpfseq  TBLPTRU, ACCESS
               01156         return
               01157 
               01158         movlw   0x12
               01159         cpfseq  FSR1L, ACCESS
               01160         return
               01161 
               01162         movlw   0x03
               01163         cpfseq  FSR1H, ACCESS
               01164         return
               01165 
               01166         movlw   0x1a
               01167         movwf   MIOS_PARAMETER1
               01168         return
               01169 #endif
               01170 
0016 EFB6 F016 01171         goto    MIOS_FLASH_Write
               01172 
               01173 ;; --------------------------------------------------------------------------
               01174 .MIOS_BANKSTICK_Read code
0000           01175 _MIOS_BANKSTICK_Read
gpasm-0.13.4 beta               /home/this/mios/trunk/modules/mios_wrapper/mios_wrapper.asm10-29-2008  12:57:15         PAGE 48


LOC  OBJECT CODE     LINE SOURCE TEXT
  VALUE
 
               01176         global  _MIOS_BANKSTICK_Read
               01177 
0000 6E03      01178         movwf   MIOS_PARAMETER1
0002 CFE9 FFD9 01179         movff   FSR0L, FSR2L
0006 CFDC F004 01180         movff   PREINC2, MIOS_PARAMETER2
               01181 
               01182 #if PARAMETER_PASSING_TEST
               01183         movlw   0x12
               01184         cpfseq  MIOS_PARAMETER1, ACCESS
               01185         return
               01186 
               01187         movlw   0x34
               01188         cpfseq  MIOS_PARAMETER2, ACCESS
               01189         return
               01190 
               01191         movlw   0x1a
               01192         movwf   MIOS_PARAMETER1
               01193         return
               01194 #endif
000A EFB8 F016 01195         goto    MIOS_BANKSTICK_Read
               01196 
               01197 ;; --------------------------------------------------------------------------
               01198 .MIOS_BANKSTICK_Write code
0000           01199 _MIOS_BANKSTICK_Write
               01200         global  _MIOS_BANKSTICK_Write
               01201 
0000 6E03      01202         movwf   MIOS_PARAMETER1
0002 CFE9 FFD9 01203         movff   FSR0L, FSR2L
0006 CFDC F004 01204         movff   PREINC2, MIOS_PARAMETER2
000A 50DC      01205         movf    PREINC2, W
               01206 
               01207 #if PARAMETER_PASSING_TEST
               01208         movwf   TMP1
               01209         movlw   0x56
               01210         cpfseq  TMP1, ACCESS
               01211         return
               01212 
               01213         movlw   0x12
               01214         cpfseq  MIOS_PARAMETER1, ACCESS
               01215         return
               01216 
               01217         movlw   0x34
               01218         cpfseq  MIOS_PARAMETER2, ACCESS
               01219         return
               01220 
               01221         movlw   0x1a
               01222         movwf   MIOS_PARAMETER1
               01223         return
               01224 #endif
               01225 
000C EFBA F016 01226         goto    MIOS_BANKSTICK_Write
               01227 
               01228 ;; --------------------------------------------------------------------------
               01229 .MIOS_BANKSTICK_CtrlSet code MIOS_BANKSTICK_CtrlSet
gpasm-0.13.4 beta               /home/this/mios/trunk/modules/mios_wrapper/mios_wrapper.asm10-29-2008  12:57:15         PAGE 49


LOC  OBJECT CODE     LINE SOURCE TEXT
  VALUE
 
2DDC           01230 _MIOS_BANKSTICK_CtrlSet
               01231         global  _MIOS_BANKSTICK_CtrlSet
               01232 
               01233 ;; --------------------------------------------------------------------------
               01234 .MIOS_BANKSTICK_CtrlGet code MIOS_BANKSTICK_CtrlGet
2DE0           01235 _MIOS_BANKSTICK_CtrlGet
               01236         global  _MIOS_BANKSTICK_CtrlGet
               01237 
               01238 ;; --------------------------------------------------------------------------
               01239 .MIOS_BANKSTICK_WritePage code
0000           01240 _MIOS_BANKSTICK_WritePage
               01241         global  _MIOS_BANKSTICK_WritePage
               01242 
0000 6E03      01243         movwf   MIOS_PARAMETER1
0002 CFE9 FFD9 01244         movff   FSR0L, FSR2L
0006 CFDC F004 01245         movff   PREINC2, MIOS_PARAMETER2
000A CFDC FFE1 01246         movff   PREINC2, FSR1L
000E CFDC FFE2 01247         movff   PREINC2, FSR1H
               01248 
               01249 #if PARAMETER_PASSING_TEST
               01250         movlw   0x56
               01251         cpfseq  MIOS_PARAMETER1, ACCESS
               01252         return
               01253 
               01254         movlw   0x78
               01255         cpfseq  MIOS_PARAMETER2, ACCESS
               01256         return
               01257 
               01258         movlw   0x12
               01259         cpfseq  FSR1L, ACCESS
               01260         return
               01261 
               01262         movlw   0x03
               01263         cpfseq  FSR1H, ACCESS
               01264         return
               01265 
               01266         movlw   0x1a
               01267         movwf   MIOS_PARAMETER1
               01268         return
               01269 #endif
               01270 
0012 EFF2 F016 01271         goto    MIOS_BANKSTICK_WritePage
               01272 
               01273 ;; --------------------------------------------------------------------------
               01274 .MIOS_BANKSTICK_ReadPage code
0000           01275 _MIOS_BANKSTICK_ReadPage
               01276         global  _MIOS_BANKSTICK_ReadPage
               01277         
0000 6E03      01278         movwf   MIOS_PARAMETER1
0002 CFE9 FFD9 01279         movff   FSR0L, FSR2L
0006 CFDC F004 01280         movff   PREINC2, MIOS_PARAMETER2
000A CFDC FFE1 01281         movff   PREINC2, FSR1L
000E CFDC FFE2 01282         movff   PREINC2, FSR1H
               01283 
gpasm-0.13.4 beta               /home/this/mios/trunk/modules/mios_wrapper/mios_wrapper.asm10-29-2008  12:57:15         PAGE 50


LOC  OBJECT CODE     LINE SOURCE TEXT
  VALUE
 
               01284 #if PARAMETER_PASSING_TEST
               01285         movlw   0x56
               01286         cpfseq  MIOS_PARAMETER1, ACCESS
               01287         return
               01288 
               01289         movlw   0x78
               01290         cpfseq  MIOS_PARAMETER2, ACCESS
               01291         return
               01292 
               01293         movlw   0x12
               01294         cpfseq  FSR1L, ACCESS
               01295         return
               01296 
               01297         movlw   0x03
               01298         cpfseq  FSR1H, ACCESS
               01299         return
               01300 
               01301         movlw   0x1a
               01302         movwf   MIOS_PARAMETER1
               01303         return
               01304 #endif
               01305 
0012 EF18 F017 01306         goto    MIOS_BANKSTICK_ReadPage
               01307 
               01308 ;; --------------------------------------------------------------------------
               01309 .MIOS_TIMER_Init code
0000           01310 _MIOS_TIMER_Init
               01311         global  _MIOS_TIMER_Init
               01312 
0000 CFE9 FFD9 01313         movff   FSR0L, FSR2L
0004 CFDC F003 01314         movff   PREINC2, MIOS_PARAMETER1
0008 CFDC F004 01315         movff   PREINC2, MIOS_PARAMETER2
               01316 
               01317 #if PARAMETER_PASSING_TEST
               01318         movwf   TMP1
               01319         movlw   0x56
               01320         cpfseq  TMP1, ACCESS
               01321         return
               01322 
               01323         movlw   0x12
               01324         cpfseq  MIOS_PARAMETER1, ACCESS
               01325         return
               01326 
               01327         movlw   0x34
               01328         cpfseq  MIOS_PARAMETER2, ACCESS
               01329         return
               01330 
               01331         movlw   0x1a
               01332         movwf   MIOS_PARAMETER1
               01333         return
               01334 #endif
               01335 
000C EFBC F016 01336         goto    MIOS_TIMER_Init
               01337 
gpasm-0.13.4 beta               /home/this/mios/trunk/modules/mios_wrapper/mios_wrapper.asm10-29-2008  12:57:15         PAGE 51


LOC  OBJECT CODE     LINE SOURCE TEXT
  VALUE
 
               01338 ;; --------------------------------------------------------------------------
               01339 .MIOS_TIMER_Start code MIOS_TIMER_Start
2D7C           01340 _MIOS_TIMER_Start
               01341         global  _MIOS_TIMER_Start
               01342 
               01343 ;; --------------------------------------------------------------------------
               01344 .MIOS_TIMER_Stop code MIOS_TIMER_Stop
2D80           01345 _MIOS_TIMER_Stop
               01346         global  _MIOS_TIMER_Stop
               01347 
               01348 ;; --------------------------------------------------------------------------
               01349 .MIOS_TIMER_ReInit code
0000           01350 _MIOS_TIMER_ReInit
               01351         global  _MIOS_TIMER_ReInit
               01352 
0000 CFE9 FFD9 01353         movff   FSR0L, FSR2L
0004 CFDC F003 01354         movff   PREINC2, MIOS_PARAMETER1
0008 CFDC F004 01355         movff   PREINC2, MIOS_PARAMETER2
               01356 
               01357 #if PARAMETER_PASSING_TEST
               01358         movwf   TMP1
               01359         movlw   0x56
               01360         cpfseq  TMP1, ACCESS
               01361         return
               01362 
               01363         movlw   0x12
               01364         cpfseq  MIOS_PARAMETER1, ACCESS
               01365         return
               01366 
               01367         movlw   0x34
               01368         cpfseq  MIOS_PARAMETER2, ACCESS
               01369         return
               01370 
               01371         movlw   0x1a
               01372         movwf   MIOS_PARAMETER1
               01373         return
               01374 #endif
               01375 
000C EF1E F017 01376         goto    MIOS_TIMER_ReInit
               01377 
               01378 ;; --------------------------------------------------------------------------
               01379 .MIOS_HLP_GetBitANDMask code MIOS_HLP_GetBitANDMask
2D88           01380 _MIOS_HLP_GetBitANDMask
               01381         global  _MIOS_HLP_GetBitANDMask
               01382 
               01383 ;; --------------------------------------------------------------------------
               01384 .MIOS_HLP_GetBitORMask code MIOS_HLP_GetBitORMask
2D8C           01385 _MIOS_HLP_GetBitORMask
               01386         global  _MIOS_HLP_GetBitORMask
               01387 
               01388 ;; --------------------------------------------------------------------------
               01389 .MIOS_HLP_16bitAddSaturate code
0000           01390 _MIOS_HLP_16bitAddSaturate
               01391         global  _MIOS_HLP_16bitAddSaturate
gpasm-0.13.4 beta               /home/this/mios/trunk/modules/mios_wrapper/mios_wrapper.asm10-29-2008  12:57:15         PAGE 52


LOC  OBJECT CODE     LINE SOURCE TEXT
  VALUE
 
               01392 
0000 CFE9 FFD9 01393         movff   FSR0L, FSR2L
0004 6E0A      01394         movwf   TMP5
               01395 
0006 CFDC FFE1 01396         movff   PREINC2, FSR1L
000A CFDC FFE2 01397         movff   PREINC2, FSR1H
000E 52DC      01398         movf    PREINC2, F
0010 CFDC F003 01399         movff   PREINC2, MIOS_PARAMETER1
0014 CFDC F004 01400         movff   PREINC2, MIOS_PARAMETER2
               01401 
0018 CFE6 F006 01402         movff   POSTINC1, TMP1  ; due to requirement that FSR1 is aligned to 16bit address
001C CFE6 F007 01403         movff   POSTINC1, TMP2
0020 EE10 F006 01404         lfsr    FSR1, TMP1
               01405 
0024 500A      01406         movf    TMP5, W
0026 ECDC F016 01407         call    MIOS_HLP_16bitAddSaturate
002A CFE9 FFD9 01408         movff   FSR0L, FSR2L
002E CFDC FFE1 01409         movff   PREINC2, FSR1L
0032 CFDC FFE2 01410         movff   PREINC2, FSR1H
0036 C006 FFE6 01411         movff   TMP1, POSTINC1
003A C007 FFE6 01412         movff   TMP2, POSTINC1
003E 0012      01413         return
               01414 
               01415 ;; --------------------------------------------------------------------------
               01416 .MIOS_HLP_Dec2BCD code
0000           01417 _MIOS_HLP_Dec2BCD
               01418         global  _MIOS_HLP_Dec2BCD
               01419 
0000 CFE9 FFD9 01420         movff   FSR0L, FSR2L
0004 CFDC F003 01421         movff   PREINC2, MIOS_PARAMETER1
0008 EFF4 F016 01422         goto    MIOS_HLP_Dec2BCD
               01423 
               01424 ;; --------------------------------------------------------------------------
               01425 .MIOS_Delay code MIOS_Delay
2D9C           01426 _MIOS_Delay
               01427         global  _MIOS_Delay
               01428 
               01429 ;; --------------------------------------------------------------------------
               01430 .MIOS_GPCounterGet code MIOS_GPCounterGet
2DA0           01431 _MIOS_GPCounterGet
               01432         global  _MIOS_GPCounterGet
               01433 
               01434 ;; --------------------------------------------------------------------------
               01435 .MIOS_Reset code MIOS_Reset
2DA4           01436 _MIOS_Reset
               01437         global  _MIOS_Reset
               01438 
               01439 ;; --------------------------------------------------------------------------
               01440 .MIOS_SystemResume code MIOS_SystemResume
2DA8           01441 _MIOS_SystemResume
               01442         global  _MIOS_SystemResume
               01443 
               01444 ;; --------------------------------------------------------------------------
               01445 .MIOS_SystemSuspend code MIOS_SystemSuspend
gpasm-0.13.4 beta               /home/this/mios/trunk/modules/mios_wrapper/mios_wrapper.asm10-29-2008  12:57:15         PAGE 53


LOC  OBJECT CODE     LINE SOURCE TEXT
  VALUE
 
2DAC           01446 _MIOS_SystemSuspend
               01447         global  _MIOS_SystemSuspend
               01448 
               01449 ;; --------------------------------------------------------------------------
               01450 .MIOS_UserResume code MIOS_UserResume
2DB0           01451 _MIOS_UserResume
               01452         global  _MIOS_UserResume
               01453 
               01454 ;; --------------------------------------------------------------------------
               01455 .MIOS_UserSuspend code MIOS_UserSuspend
2DB4           01456 _MIOS_UserSuspend
               01457         global  _MIOS_UserSuspend
               01458 
               01459 ;; --------------------------------------------------------------------------
               01460 .MIOS_DIN_PinAutoRepeatEnable code MIOS_DIN_PinAutoRepeatEnable
2DBC           01461 _MIOS_DIN_PinAutoRepeatEnable
               01462         global  _MIOS_DIN_PinAutoRepeatEnable
               01463 
               01464 ;; --------------------------------------------------------------------------
               01465 .MIOS_DIN_PinAutoRepeatDisable code MIOS_DIN_PinAutoRepeatDisable
2DC0           01466 _MIOS_DIN_PinAutoRepeatDisable
               01467         global  _MIOS_DIN_PinAutoRepeatDisable
               01468 
               01469 ;; --------------------------------------------------------------------------
               01470 .MIOS_DIN_PinAutoRepeatGet code MIOS_DIN_PinAutoRepeatGet
2DC4           01471 _MIOS_DIN_PinAutoRepeatGet
               01472         global  _MIOS_DIN_PinAutoRepeatGet
               01473 
               01474 ;; --------------------------------------------------------------------------
               01475 .MIOS_AIN_DynamicPrioSet code MIOS_AIN_DynamicPrioSet
2DD0           01476 _MIOS_AIN_DynamicPrioSet
               01477         global  _MIOS_AIN_DynamicPrioSet
               01478 
               01479 ;; --------------------------------------------------------------------------
               01480 .MIOS_AIN_DynamicPrioGet code MIOS_AIN_DynamicPrioGet
2DD4           01481 _MIOS_AIN_DynamicPrioGet
               01482         global  _MIOS_AIN_DynamicPrioGet
               01483 
               01484 ;; --------------------------------------------------------------------------
               01485 .MIOS_AIN_LastPinsGet code MIOS_AIN_LastPinsGet
2DD8           01486 _MIOS_AIN_LastPinsGet
               01487         global  _MIOS_AIN_LastPinsGet
               01488 
               01489 ;; --------------------------------------------------------------------------
               01490 .MIOS_IIC_Start code MIOS_IIC_Start
2E04           01491 _MIOS_IIC_Start
               01492         global  _MIOS_IIC_Start
               01493 
               01494 ;; --------------------------------------------------------------------------
               01495 .MIOS_IIC_Stop code MIOS_IIC_Stop
2E08           01496 _MIOS_IIC_Stop
               01497         global  _MIOS_IIC_Stop
               01498 
               01499 ;; --------------------------------------------------------------------------
gpasm-0.13.4 beta               /home/this/mios/trunk/modules/mios_wrapper/mios_wrapper.asm10-29-2008  12:57:15         PAGE 54


LOC  OBJECT CODE     LINE SOURCE TEXT
  VALUE
 
               01500 .MIOS_IIC_ByteSend code MIOS_IIC_ByteSend
2E0C           01501 _MIOS_IIC_ByteSend
               01502         global  _MIOS_IIC_ByteSend
               01503 
               01504 ;; --------------------------------------------------------------------------
               01505 .MIOS_IIC_ByteReceive code MIOS_IIC_ByteReceive
2E10           01506 _MIOS_IIC_ByteReceive
               01507         global  _MIOS_IIC_ByteReceive
               01508 
               01509 ;; --------------------------------------------------------------------------
               01510 .MIOS_IIC_AckSend code MIOS_IIC_AckSend
2E14           01511 _MIOS_IIC_AckSend
               01512         global  _MIOS_IIC_AckSend
               01513 
               01514 ;; --------------------------------------------------------------------------
               01515 .MIOS_IIC_NakSend code MIOS_IIC_NakSend
2E18           01516 _MIOS_IIC_NakSend
               01517         global  _MIOS_IIC_NakSend
               01518 
               01519 ;; --------------------------------------------------------------------------
               01520 .MIOS_IIC_CtrlSet code MIOS_IIC_CtrlSet
2E1C           01521 _MIOS_IIC_CtrlSet
               01522         global  _MIOS_IIC_CtrlSet
               01523 
               01524 ;; --------------------------------------------------------------------------
               01525 .MIOS_IIC_CtrlGet code MIOS_IIC_CtrlGet
2E20           01526 _MIOS_IIC_CtrlGet
               01527         global  _MIOS_IIC_CtrlGet
               01528 
               01529 
               01530 ;; --------------------------------------------------------------------------
               01531 ;; ==========================================================================
               01532 ;;  Special functions supported by the wrapper
               01533 ;; ==========================================================================
               01534 ;; --------------------------------------------------------------------------
               01535 
               01536 ;; --------------------------------------------------------------------------
               01537 .MIOS_LCD_PrintCString code
0000           01538 _MIOS_LCD_PrintCString
               01539         global  _MIOS_LCD_PrintCString
               01540 
0000 6EF6      01541         movwf   TBLPTRL
0002 CFE9 FFD9 01542         movff   FSR0L, FSR2L
0006 CFDC FFF7 01543         movff   PREINC2, TBLPTRH
000A 50DC      01544         movf    PREINC2, W
               01545 
               01546         ;; SDCC passes a 24bit pointer, the MSB (now in WREG) bit 6 and 7 tells us, where the data is located:
               01547         ;; 00 -> code
               01548         ;; 01 -> EEPROM (not supported by MIOS_LCD_PrintCString yet)
               01549         ;; 10 -> data
               01550         ;; 11 -> unimplemented
               01551 
000C BEE8      01552         btfsc   WREG, 7
000E D000      01553         bra     _MIOS_LCD_PrintCString_RAM
gpasm-0.13.4 beta               /home/this/mios/trunk/modules/mios_wrapper/mios_wrapper.asm10-29-2008  12:57:15         PAGE 55


LOC  OBJECT CODE     LINE SOURCE TEXT
  VALUE
 
0010           01554 _MIOS_LCD_PrintCString_Code
0010 6EF8      01555         movwf   TBLPTRU
0012           01556 _MIOS_LCD_PrintCStringLoop_Code
0012 0009      01557         tblrd*+
0014 50F5      01558         movf    TABLAT, W
0016 E000      01559         bz      _MIOS_LCD_PrintCString_Code_End
0018 EC94 F016 01560         call    MIOS_LCD_PrintChar
001C D000      01561         bra     _MIOS_LCD_PrintCStringLoop_Code
001E           01562 _MIOS_LCD_PrintCString_Code_End
001E 0012      01563         return
               01564 
0020           01565 _MIOS_LCD_PrintCString_RAM
               01566         ;; using FSR2 as temporary pointer - store current FSR2 into TMP[12]
0020 CFD9 F006 01567         movff   FSR2L, TMP1
0024 CFDA F007 01568         movff   FSR2H, TMP2
0028 CFF6 FFD9 01569         movff   TBLPTRL, FSR2L
002C CFF7 FFDA 01570         movff   TBLPTRH, FSR2H
0030           01571 _MIOS_LCD_PrintCStringLoop_RAM
0030 50DE      01572         movf    POSTINC2, W
0032 E000      01573         bz      _MIOS_LCD_PrintCString_RAM_End
0034 EC94 F016 01574         call    MIOS_LCD_PrintChar
0038 D000      01575         bra     _MIOS_LCD_PrintCStringLoop_RAM
003A           01576 _MIOS_LCD_PrintCString_RAM_End
               01577         ;; restore FSR2
003A C006 FFD9 01578         movff   TMP1, FSR2L
003E C007 FFDA 01579         movff   TMP2, FSR2H
0042 0012      01580         return
               01581 
gpasm-0.13.4 beta               /home/this/mios/trunk/modules/mios_wrapper/mios_wrapper.asm10-29-2008  12:57:15         PAGE 56


SYMBOL TABLE
  LABEL                             VALUE 

A                                 00000000
ACCESS                            00000000
ACKDT                             00000005
ACKEN                             00000004
ACKSTAT                           00000006
ADCON0                            00000FC2
ADCON1                            00000FC1
ADCS0                             00000006
ADCS1                             00000007
ADCS2                             00000006
ADDEN                             00000003
ADFM                              00000007
ADIE                              00000006
ADIF                              00000006
ADIP                              00000006
ADON                              00000000
ADRESH                            00000FC4
ADRESL                            00000FC3
AN0                               00000000
AN1                               00000001
AN2                               00000002
AN3                               00000003
AN4                               00000005
AN5                               00000000
AN6                               00000001
AN7                               00000002
BANKED                            00000001
BCLIE                             00000003
BCLIF                             00000003
BCLIP                             00000003
BF                                00000000
BOR                               00000000
BRGH                              00000002
BSR                               00000FE0
C                                 00000000
CCP1                              00000002
CCP1CON                           00000FBD
CCP1IE                            00000002
CCP1IF                            00000002
CCP1IP                            00000002
CCP1M0                            00000000
CCP1M1                            00000001
CCP1M2                            00000002
CCP1M3                            00000003
CCP1X                             00000005
CCP1Y                             00000004
CCP2                              00000001
CCP2A                             00000003
CCP2CON                           00000FBA
CCP2IE                            00000000
CCP2IF                            00000000
CCP2IP                            00000000
CCP2M0                            00000000
gpasm-0.13.4 beta               /home/this/mios/trunk/modules/mios_wrapper/mios_wrapper.asm10-29-2008  12:57:15         PAGE 57


LOC  OBJECT CODE     LINE SOURCE TEXT
  VALUE
 
CCP2M1                            00000001
CCP2M2                            00000002
CCP2M3                            00000003
CCP2X                             00000005
CCP2Y                             00000004
CCPR1H                            00000FBF
CCPR1L                            00000FBE
CCPR2H                            00000FBC
CCPR2L                            00000FBB
CFGS                              00000006
CHS0                              00000003
CHS1                              00000004
CHS2                              00000005
CK                                00000006
CKE                               00000006
CKP                               00000004
CLKO                              00000006
CREN                              00000004
CS                                00000002
CSRC                              00000007
D                                 00000005
DATA_ADDRESS                      00000005
DC                                00000001
DC1B0                             00000004
DC1B1                             00000005
DC2B0                             00000004
DC2B1                             00000005
DONE                              00000002
D_A                               00000005
EEADR                             00000FA9
EECON1                            00000FA6
EECON2                            00000FA7
EEDATA                            00000FA8
EEIE                              00000004
EEIF                              00000004
EEIP                              00000004
EEPGD                             00000007
FAST                              00000001
FERR                              00000002
FREE                              00000004
FSR0                              00000000
FSR0H                             00000FEA
FSR0L                             00000FE9
FSR1                              00000001
FSR1H                             00000FE2
FSR1L                             00000FE1
FSR2                              00000002
FSR2H                             00000FDA
FSR2L                             00000FD9
GCEN                              00000007
GIE                               00000007
GIEH                              00000007
GIEL                              00000006
GO                                00000002
gpasm-0.13.4 beta               /home/this/mios/trunk/modules/mios_wrapper/mios_wrapper.asm10-29-2008  12:57:15         PAGE 58


LOC  OBJECT CODE     LINE SOURCE TEXT
  VALUE
 
GO_DONE                           00000002
I2C_DAT                           00000005
I2C_READ                          00000002
I2C_START                         00000003
I2C_STOP                          00000004
IBF                               00000007
IBOV                              00000005
INDF0                             00000FEF
INDF1                             00000FE7
INDF2                             00000FDF
INT0                              00000000
INT0E                             00000004
INT0F                             00000001
INT0IE                            00000004
INT0IF                            00000001
INT1                              00000001
INT1IE                            00000003
INT1IF                            00000000
INT1IP                            00000006
INT2                              00000002
INT2IE                            00000004
INT2IF                            00000001
INT2IP                            00000007
INTCON                            00000FF2
INTCON1                           00000FF2
INTCON2                           00000FF1
INTCON3                           00000FF0
INTEDG0                           00000006
INTEDG1                           00000005
INTEDG2                           00000004
IPEN                              00000007
IPR1                              00000F9F
IPR2                              00000FA2
IRQ_TMP1                          0000000B
IRQ_TMP2                          0000000C
IRQ_TMP3                          0000000D
IRQ_TMP4                          0000000E
IRQ_TMP5                          0000000F
IRVST                             00000005
LATA                              00000F89
LATB                              00000F8A
LATC                              00000F8B
LATD                              00000F8C
LATE                              00000F8D
LVDCON                            00000FD2
LVDEN                             00000004
LVDIE                             00000002
LVDIF                             00000002
LVDIN                             00000005
LVDIP                             00000002
LVDL0                             00000000
LVDL1                             00000001
LVDL2                             00000002
LVDL3                             00000003
gpasm-0.13.4 beta               /home/this/mios/trunk/modules/mios_wrapper/mios_wrapper.asm10-29-2008  12:57:15         PAGE 59


LOC  OBJECT CODE     LINE SOURCE TEXT
  VALUE
 
MIOS_AIN_DeadbandGet              00002C5C
MIOS_AIN_DeadbandSet              00002C60
MIOS_AIN_DynamicPrioGet           00002DD4
MIOS_AIN_DynamicPrioSet           00002DD0
MIOS_AIN_LastPinsGet              00002DD8
MIOS_AIN_Muxed                    00002C64
MIOS_AIN_NumberGet                00002C68
MIOS_AIN_NumberSet                00002C6C
MIOS_AIN_Pin7bitGet               00002C70
MIOS_AIN_PinGet                   00002C74
MIOS_AIN_PinLSBGet                00002C78
MIOS_AIN_PinMSBGet                00002C7C
MIOS_AIN_UnMuxed                  00002C80
MIOS_BANKSTICK_CtrlGet            00002DE0
MIOS_BANKSTICK_CtrlSet            00002DDC
MIOS_BANKSTICK_Read               00002D70
MIOS_BANKSTICK_ReadPage           00002E30
MIOS_BANKSTICK_Write              00002D74
MIOS_BANKSTICK_WritePage          00002DE4
MIOS_BOX_CFG0                     00000000
MIOS_BOX_CFG0_20MHz               00000007
MIOS_BOX_CFG0_LCD_TYPE0           00000000
MIOS_BOX_CFG0_LCD_TYPE1           00000001
MIOS_BOX_CFG0_LCD_TYPE2           00000002
MIOS_BOX_CFG0_MBLINK              00000005
MIOS_BOX_CFG0_MERGER              00000004
MIOS_BOX_CFG0_TO_HOST             00000006
MIOS_BOX_CFG0_USE_GLCD            00000003
MIOS_BOX_CFG1                     00000001
MIOS_BOX_CFG1_BS_A0               00000000
MIOS_BOX_CFG1_BS_A1               00000001
MIOS_BOX_CFG1_BS_A2               00000002
MIOS_BOX_CFG1_BS_DIS_VERIFY       00000003
MIOS_BOX_CFG1_IIC_STRETCH_CLK     00000004
MIOS_BOX_STAT                     00000002
MIOS_BOX_STAT_AUTOREPEAT          00000004
MIOS_BOX_STAT_BS_AVAILABLE        00000000
MIOS_BOX_STAT_FERR                00000006
MIOS_BOX_STAT_MBLINK_TUNNEL_PASS  00000001
MIOS_BOX_STAT_MLCD_TRANSFER       00000005
MIOS_BOX_STAT_SUSPEND_ALL         00000002
MIOS_BOX_STAT_SUSPEND_USER        00000003
MIOS_CLCD_SpecialCharInit         00002DC8
MIOS_CLCD_SpecialCharsInit        00002DCC
MIOS_DIN_PinAutoRepeatDisable     00002DC0
MIOS_DIN_PinAutoRepeatEnable      00002DBC
MIOS_DIN_PinAutoRepeatGet         00002DC4
MIOS_DIN_PinGet                   00002CB4
MIOS_DIN_SRGet                    00002CB8
MIOS_DOUT_PinGet                  00002CBC
MIOS_DOUT_PinSet                  00002CC0
MIOS_DOUT_PinSet0                 00002CC4
MIOS_DOUT_PinSet1                 00002CC8
MIOS_DOUT_SRGet                   00002CCC
gpasm-0.13.4 beta               /home/this/mios/trunk/modules/mios_wrapper/mios_wrapper.asm10-29-2008  12:57:15         PAGE 60


LOC  OBJECT CODE     LINE SOURCE TEXT
  VALUE
 
MIOS_DOUT_SRSet                   00002CD0
MIOS_Delay                        00002D9C
MIOS_EEPROM_Read                  00002D60
MIOS_EEPROM_ReadPage              00002E34
MIOS_EEPROM_Write                 00002D64
MIOS_EEPROM_WritePage             00002E38
MIOS_ENC_Abs7bitAdd               00002CD4
MIOS_ENC_Abs7bitGet               00002CD8
MIOS_ENC_Abs7bitSet               00002CDC
MIOS_ENC_MODE_DETENTED            00000080
MIOS_ENC_MODE_DETENTED1           00000080
MIOS_ENC_MODE_DETENTED2           00000081
MIOS_ENC_MODE_DETENTED3           00000082
MIOS_ENC_MODE_NON_DETENTED        00000000
MIOS_ENC_NumberGet                00002CE0
MIOS_ENC_PIN_TABLE                00003280
MIOS_ENC_SPEED_FAST               00000002
MIOS_ENC_SPEED_NORMAL             00000001
MIOS_ENC_SPEED_SLOW               00000000
MIOS_ENC_SpeedGet                 00002CE4
MIOS_ENC_SpeedSet                 00002CE8
MIOS_FLASH_Read                   00002D68
MIOS_FLASH_Write                  00002D6C
MIOS_GLCD_BUFFER                  00000570
MIOS_GLCD_FONT                    00007CFC
MIOS_GLCD_FONT_HEIGHT             0000057E
MIOS_GLCD_FONT_OFFSET             00000580
MIOS_GLCD_FONT_PTRH               00000582
MIOS_GLCD_FONT_PTRL               00000581
MIOS_GLCD_FONT_PTRU               0000058E
MIOS_GLCD_FONT_WIDTH              0000057D
MIOS_GLCD_FONT_X0                 0000057F
MIOS_GLCD_FontInit                00002D54
MIOS_GLCD_GCURSOR_X               0000057B
MIOS_GLCD_GCURSOR_Y               0000057C
MIOS_GLCD_GCursorGet              00002D58
MIOS_GLCD_GCursorSet              00002D5C
MIOS_GLCD_TMP1                    00000585
MIOS_GLCD_TMP2                    00000586
MIOS_GLCD_TMP3                    00000587
MIOS_GLCD_TMP4                    00000588
MIOS_GPCounterGet                 00002DA0
MIOS_HLP_16bitAddSaturate         00002DB8
MIOS_HLP_AddressFromTable         00002D84
MIOS_HLP_Dec2BCD                  00002DE8
MIOS_HLP_GetBitANDMask            00002D88
MIOS_HLP_GetBitORMask             00002D8C
MIOS_HLP_GetIndex_2bytes          00002D90
MIOS_HLP_GetIndex_4bytes          00002D94
MIOS_HLP_IndirectJump             00002D98
MIOS_IIC_AckSend                  00002E14
MIOS_IIC_ByteReceive              00002E10
MIOS_IIC_ByteSend                 00002E0C
MIOS_IIC_CtrlGet                  00002E20
gpasm-0.13.4 beta               /home/this/mios/trunk/modules/mios_wrapper/mios_wrapper.asm10-29-2008  12:57:15         PAGE 61


LOC  OBJECT CODE     LINE SOURCE TEXT
  VALUE
 
MIOS_IIC_CtrlSet                  00002E1C
MIOS_IIC_NakSend                  00002E18
MIOS_IIC_Start                    00002E04
MIOS_IIC_Stop                     00002E08
MIOS_LCD_CURSOR_POS               0000057A
MIOS_LCD_CURSOR_POS_REAL          0000058D
MIOS_LCD_Clear                    00002D04
MIOS_LCD_Cmd                      00002D08
MIOS_LCD_CursorGet                00002D0C
MIOS_LCD_CursorSet                00002D10
MIOS_LCD_Data                     00002D14
MIOS_LCD_Init                     00002D18
MIOS_LCD_MessageStart             00002DF4
MIOS_LCD_MessageStop              00002DF8
MIOS_LCD_OPTION1                  00000578
MIOS_LCD_OPTION2                  00000579
MIOS_LCD_PrintBCD1                00002D1C
MIOS_LCD_PrintBCD2                00002D20
MIOS_LCD_PrintBCD3                00002D24
MIOS_LCD_PrintBCD4                00002DEC
MIOS_LCD_PrintBCD5                00002DF0
MIOS_LCD_PrintChar                00002D28
MIOS_LCD_PrintHex1                00002D2C
MIOS_LCD_PrintHex2                00002D30
MIOS_LCD_PrintMessage             00002D34
MIOS_LCD_PrintPreconfString       00002D38
MIOS_LCD_PrintString              00002D3C
MIOS_LCD_TIMEOUT0                 00000583
MIOS_LCD_TIMEOUT1                 00000584
MIOS_LCD_TYPE_CLCD                00000000
MIOS_LCD_TYPE_GLCD0               00000001
MIOS_LCD_TYPE_GLCD1               00000002
MIOS_LCD_TYPE_GLCD2               00000003
MIOS_LCD_TYPE_GLCD3               00000004
MIOS_LCD_TYPE_GLCD4               00000005
MIOS_LCD_TYPE_GLCD_CUSTOM         00000007
MIOS_LCD_TYPE_MLCD                00000006
MIOS_LCD_TypeAutoSet              00002D40
MIOS_LCD_TypeGet                  00002D44
MIOS_LCD_TypeSet                  00002D48
MIOS_LCD_Y0_OFFSET                00000589
MIOS_LCD_Y1_OFFSET                0000058A
MIOS_LCD_Y2_OFFSET                0000058B
MIOS_LCD_Y3_OFFSET                0000058C
MIOS_LCD_YAddressGet              00002D4C
MIOS_LCD_YAddressSet              00002D50
MIOS_MF_DeadbandGet               00002C94
MIOS_MF_DeadbandSet               00002C98
MIOS_MF_Disable                   00002C9C
MIOS_MF_Enable                    00002CA0
MIOS_MF_FaderMove                 00002CA4
MIOS_MF_PWM_DutyCycleDownGet      00002C84
MIOS_MF_PWM_DutyCycleDownSet      00002C88
MIOS_MF_PWM_DutyCycleUpGet        00002C8C
gpasm-0.13.4 beta               /home/this/mios/trunk/modules/mios_wrapper/mios_wrapper.asm10-29-2008  12:57:15         PAGE 62


LOC  OBJECT CODE     LINE SOURCE TEXT
  VALUE
 
MIOS_MF_PWM_DutyCycleUpSet        00002C90
MIOS_MF_PWM_PeriodGet             00002DFC
MIOS_MF_PWM_PeriodSet             00002E00
MIOS_MF_SuspendDisable            00002CA8
MIOS_MF_SuspendEnable             00002CAC
MIOS_MF_SuspendGet                00002CB0
MIOS_MF_TouchDetectionReset       00002E2C
MIOS_MIDI_BeginStream             00002C00
MIOS_MIDI_DeviceIDAutoSet         00002C04
MIOS_MIDI_DeviceIDGet             00002C08
MIOS_MIDI_DeviceIDSet             00002C0C
MIOS_MIDI_EndStream               00002C10
MIOS_MIDI_INTERFACE_COMMON        00000000
MIOS_MIDI_INTERFACE_TO_HOST       00000001
MIOS_MIDI_Init                    00002C14
MIOS_MIDI_InterfaceAutoSet        00002C18
MIOS_MIDI_InterfaceGet            00002C1C
MIOS_MIDI_InterfaceSet            00002C20
MIOS_MIDI_MERGER_DISABLED         00000000
MIOS_MIDI_MERGER_ENABLED          00000001
MIOS_MIDI_MERGER_MBLINK_EP        00000002
MIOS_MIDI_MERGER_MBLINK_FP        00000003
MIOS_MIDI_MergerGet               00002C24
MIOS_MIDI_MergerSet               00002C28
MIOS_MIDI_RxBufferFree            00002C2C
MIOS_MIDI_RxBufferGet             00002C30
MIOS_MIDI_RxBufferPut             00002C34
MIOS_MIDI_RxBufferUsed            00002C38
MIOS_MIDI_TxBufferFlush           00002C3C
MIOS_MIDI_TxBufferFree            00002C40
MIOS_MIDI_TxBufferGet             00002C44
MIOS_MIDI_TxBufferPut             00002C48
MIOS_MIDI_TxBufferUsed            00002C4C
MIOS_MPROC_EVENT_TABLE            00003080
MIOS_MPROC_MergerDisable          00002C50
MIOS_MPROC_MergerEnable           00002C54
MIOS_MPROC_MergerGet              00002C58
MIOS_PARAMETER1                   00000003
MIOS_PARAMETER2                   00000004
MIOS_PARAMETER3                   00000005
MIOS_RESERVED_144                 00002E40
MIOS_RESERVED_145                 00002E44
MIOS_RESERVED_146                 00002E48
MIOS_RESERVED_147                 00002E4C
MIOS_RESERVED_148                 00002E50
MIOS_RESERVED_149                 00002E54
MIOS_RESERVED_150                 00002E58
MIOS_RESERVED_151                 00002E5C
MIOS_RESERVED_152                 00002E60
MIOS_RESERVED_153                 00002E64
MIOS_RESERVED_154                 00002E68
MIOS_RESERVED_155                 00002E6C
MIOS_RESERVED_156                 00002E70
MIOS_RESERVED_157                 00002E74
gpasm-0.13.4 beta               /home/this/mios/trunk/modules/mios_wrapper/mios_wrapper.asm10-29-2008  12:57:15         PAGE 63


LOC  OBJECT CODE     LINE SOURCE TEXT
  VALUE
 
MIOS_RESERVED_158                 00002E78
MIOS_RESERVED_159                 00002E7C
MIOS_RESERVED_160                 00002E80
MIOS_RESERVED_161                 00002E84
MIOS_RESERVED_162                 00002E88
MIOS_RESERVED_163                 00002E8C
MIOS_RESERVED_164                 00002E90
MIOS_RESERVED_165                 00002E94
MIOS_RESERVED_166                 00002E98
MIOS_RESERVED_167                 00002E9C
MIOS_RESERVED_168                 00002EA0
MIOS_RESERVED_169                 00002EA4
MIOS_RESERVED_170                 00002EA8
MIOS_RESERVED_171                 00002EAC
MIOS_RESERVED_172                 00002EB0
MIOS_RESERVED_173                 00002EB4
MIOS_RESERVED_174                 00002EB8
MIOS_RESERVED_175                 00002EBC
MIOS_RESERVED_176                 00002EC0
MIOS_RESERVED_177                 00002EC4
MIOS_RESERVED_178                 00002EC8
MIOS_RESERVED_179                 00002ECC
MIOS_RESERVED_180                 00002ED0
MIOS_RESERVED_181                 00002ED4
MIOS_RESERVED_182                 00002ED8
MIOS_RESERVED_183                 00002EDC
MIOS_RESERVED_184                 00002EE0
MIOS_RESERVED_185                 00002EE4
MIOS_RESERVED_186                 00002EE8
MIOS_RESERVED_187                 00002EEC
MIOS_RESERVED_188                 00002EF0
MIOS_RESERVED_189                 00002EF4
MIOS_RESERVED_190                 00002EF8
MIOS_RESERVED_191                 00002EFC
MIOS_RESERVED_192                 00002F00
MIOS_RESERVED_193                 00002F04
MIOS_RESERVED_194                 00002F08
MIOS_RESERVED_195                 00002F0C
MIOS_RESERVED_196                 00002F10
MIOS_RESERVED_197                 00002F14
MIOS_RESERVED_198                 00002F18
MIOS_RESERVED_199                 00002F1C
MIOS_RESERVED_200                 00002F20
MIOS_RESERVED_201                 00002F24
MIOS_RESERVED_202                 00002F28
MIOS_RESERVED_203                 00002F2C
MIOS_RESERVED_204                 00002F30
MIOS_RESERVED_205                 00002F34
MIOS_RESERVED_206                 00002F38
MIOS_RESERVED_207                 00002F3C
MIOS_RESERVED_208                 00002F40
MIOS_RESERVED_209                 00002F44
MIOS_RESERVED_210                 00002F48
MIOS_RESERVED_211                 00002F4C
gpasm-0.13.4 beta               /home/this/mios/trunk/modules/mios_wrapper/mios_wrapper.asm10-29-2008  12:57:15         PAGE 64


LOC  OBJECT CODE     LINE SOURCE TEXT
  VALUE
 
MIOS_RESERVED_212                 00002F50
MIOS_RESERVED_213                 00002F54
MIOS_RESERVED_214                 00002F58
MIOS_RESERVED_215                 00002F5C
MIOS_RESERVED_216                 00002F60
MIOS_RESERVED_217                 00002F64
MIOS_RESERVED_218                 00002F68
MIOS_RESERVED_219                 00002F6C
MIOS_RESERVED_220                 00002F70
MIOS_RESERVED_221                 00002F74
MIOS_RESERVED_222                 00002F78
MIOS_RESERVED_223                 00002F7C
MIOS_RESERVED_224                 00002F80
MIOS_RESERVED_225                 00002F84
MIOS_RESERVED_226                 00002F88
MIOS_RESERVED_227                 00002F8C
MIOS_RESERVED_228                 00002F90
MIOS_RESERVED_229                 00002F94
MIOS_RESERVED_230                 00002F98
MIOS_RESERVED_231                 00002F9C
MIOS_RESERVED_232                 00002FA0
MIOS_RESERVED_233                 00002FA4
MIOS_RESERVED_234                 00002FA8
MIOS_RESERVED_235                 00002FAC
MIOS_RESERVED_236                 00002FB0
MIOS_RESERVED_237                 00002FB4
MIOS_RESERVED_238                 00002FB8
MIOS_RESERVED_239                 00002FBC
MIOS_RESERVED_240                 00002FC0
MIOS_RESERVED_241                 00002FC4
MIOS_RESERVED_242                 00002FC8
MIOS_RESERVED_243                 00002FCC
MIOS_RESERVED_244                 00002FD0
MIOS_RESERVED_245                 00002FD4
MIOS_RESERVED_246                 00002FD8
MIOS_RESERVED_247                 00002FDC
MIOS_RESERVED_248                 00002FE0
MIOS_RESERVED_249                 00002FE4
MIOS_RESERVED_250                 00002FE8
MIOS_RESERVED_251                 00002FEC
MIOS_RESERVED_252                 00002FF0
MIOS_RESERVED_253                 00002FF4
MIOS_RESERVED_254                 00002FF8
MIOS_RESERVED_255                 00002FFC
MIOS_Reset                        00002DA4
MIOS_SRIO_DebounceGet             00002E28
MIOS_SRIO_DebounceSet             00002E24
MIOS_SRIO_NumberGet               00002CEC
MIOS_SRIO_NumberSet               00002CF0
MIOS_SRIO_TS_SensitivityGet       00002CF4
MIOS_SRIO_TS_SensitivitySet       00002CF8
MIOS_SRIO_UpdateFrqGet            00002CFC
MIOS_SRIO_UpdateFrqSet            00002D00
MIOS_SystemResume                 00002DA8
gpasm-0.13.4 beta               /home/this/mios/trunk/modules/mios_wrapper/mios_wrapper.asm10-29-2008  12:57:15         PAGE 65


LOC  OBJECT CODE     LINE SOURCE TEXT
  VALUE
 
MIOS_SystemSuspend                00002DAC
MIOS_TIMER_Init                   00002D78
MIOS_TIMER_ReInit                 00002E3C
MIOS_TIMER_Start                  00002D7C
MIOS_TIMER_Stop                   00002D80
MIOS_UserResume                   00002DB0
MIOS_UserSuspend                  00002DB4
N                                 00000004
NOT_A                             00000005
NOT_ADDRESS                       00000005
NOT_BOR                           00000000
NOT_DONE                          00000002
NOT_PD                            00000002
NOT_POR                           00000001
NOT_RBPU                          00000007
NOT_RC8                           00000006
NOT_RI                            00000004
NOT_T1SYNC                        00000002
NOT_T3SYNC                        00000002
NOT_TO                            00000003
NOT_TX8                           00000006
NOT_W                             00000002
NOT_WRITE                         00000002
OBF                               00000006
OERR                              00000001
OSC2                              00000006
OSCCON                            00000FD3
OV                                00000003
P                                 00000004
PCFG0                             00000000
PCFG1                             00000001
PCFG2                             00000002
PCFG3                             00000003
PCL                               00000FF9
PCLATH                            00000FFA
PCLATU                            00000FFB
PD                                00000002
PEIE                              00000006
PEN                               00000002
PIE1                              00000F9D
PIE2                              00000FA0
PIR1                              00000F9E
PIR2                              00000FA1
PLUSW0                            00000FEB
PLUSW1                            00000FE3
PLUSW2                            00000FDB
POR                               00000001
PORTA                             00000F80
PORTB                             00000F81
PORTC                             00000F82
PORTD                             00000F83
PORTE                             00000F84
POSTDEC0                          00000FED
POSTDEC1                          00000FE5
gpasm-0.13.4 beta               /home/this/mios/trunk/modules/mios_wrapper/mios_wrapper.asm10-29-2008  12:57:15         PAGE 66


LOC  OBJECT CODE     LINE SOURCE TEXT
  VALUE
 
POSTDEC2                          00000FDD
POSTINC0                          00000FEE
POSTINC1                          00000FE6
POSTINC2                          00000FDE
PR2                               00000FCB
PREINC0                           00000FEC
PREINC1                           00000FE4
PREINC2                           00000FDC
PRODH                             00000FF4
PRODL                             00000FF3
PSA                               00000003
PSP0                              00000000
PSP1                              00000001
PSP2                              00000002
PSP3                              00000003
PSP4                              00000004
PSP5                              00000005
PSP6                              00000006
PSP7                              00000007
PSPIE                             00000007
PSPIF                             00000007
PSPIP                             00000007
PSPMODE                           00000004
R                                 00000002
RA0                               00000000
RA1                               00000001
RA2                               00000002
RA3                               00000003
RA4                               00000004
RA5                               00000005
RA6                               00000006
RB0                               00000000
RB1                               00000001
RB2                               00000002
RB3                               00000003
RB4                               00000004
RB5                               00000005
RB6                               00000006
RB7                               00000007
RBIE                              00000003
RBIF                              00000000
RBIP                              00000000
RBPU                              00000007
RC0                               00000000
RC1                               00000001
RC2                               00000002
RC3                               00000003
RC4                               00000004
RC5                               00000005
RC6                               00000006
RC7                               00000007
RC8_9                             00000006
RC9                               00000006
RCD8                              00000000
gpasm-0.13.4 beta               /home/this/mios/trunk/modules/mios_wrapper/mios_wrapper.asm10-29-2008  12:57:15         PAGE 67


LOC  OBJECT CODE     LINE SOURCE TEXT
  VALUE
 
RCEN                              00000003
RCIE                              00000005
RCIF                              00000005
RCIP                              00000005
RCON                              00000FD0
RCREG                             00000FAE
RCSTA                             00000FAB
RD                                00000000
RD0                               00000000
RD1                               00000001
RD16                              00000007
RD2                               00000002
RD3                               00000003
RD4                               00000004
RD5                               00000005
RD6                               00000006
RD7                               00000007
RE0                               00000000
RE1                               00000001
RE2                               00000002
READ_WRITE                        00000002
RI                                00000004
RSEN                              00000001
RX                                00000007
RX9                               00000006
RX9D                              00000000
R_W                               00000002
S                                 00000003
SCK                               00000003
SCL                               00000003
SCS                               00000000
SDA                               00000004
SDI                               00000004
SDO                               00000005
SEN                               00000000
SMP                               00000007
SPBRG                             00000FAF
SPEN                              00000007
SREN                              00000005
SS                                00000005
SSPADD                            00000FC8
SSPBUF                            00000FC9
SSPCON1                           00000FC6
SSPCON2                           00000FC5
SSPEN                             00000005
SSPIE                             00000003
SSPIF                             00000003
SSPIP                             00000003
SSPM0                             00000000
SSPM1                             00000001
SSPM2                             00000002
SSPM3                             00000003
SSPOV                             00000006
SSPSTAT                           00000FC7
gpasm-0.13.4 beta               /home/this/mios/trunk/modules/mios_wrapper/mios_wrapper.asm10-29-2008  12:57:15         PAGE 68


LOC  OBJECT CODE     LINE SOURCE TEXT
  VALUE
 
STATUS                            00000FD8
STKFUL                            00000007
STKPTR                            00000FFC
STKUNF                            00000006
SWDTE                             00000000
SWDTEN                            00000000
SYNC                              00000004
T08BIT                            00000006
T0CKI                             00000004
T0CON                             00000FD5
T0CS                              00000005
T0IE                              00000005
T0IF                              00000002
T0IP                              00000002
T0PS0                             00000000
T0PS1                             00000001
T0PS2                             00000002
T0SE                              00000004
T1CKI                             00000000
T1CKPS0                           00000004
T1CKPS1                           00000005
T1CON                             00000FCD
T1INSYNC                          00000002
T1OSCEN                           00000003
T1OSI                             00000001
T1OSO                             00000000
T1SYNC                            00000002
T2CKPS0                           00000000
T2CKPS1                           00000001
T2CON                             00000FCA
T3CCP1                            00000003
T3CCP2                            00000006
T3CKPS0                           00000004
T3CKPS1                           00000005
T3CON                             00000FB1
T3INSYNC                          00000002
T3SYNC                            00000002
TABLAT                            00000FF5
TBLPTRH                           00000FF7
TBLPTRL                           00000FF6
TBLPTRU                           00000FF8
TMP1                              00000006
TMP2                              00000007
TMP3                              00000008
TMP4                              00000009
TMP5                              0000000A
TMR0H                             00000FD7
TMR0IE                            00000005
TMR0IF                            00000002
TMR0IP                            00000002
TMR0L                             00000FD6
TMR0ON                            00000007
TMR1CS                            00000001
TMR1H                             00000FCF
gpasm-0.13.4 beta               /home/this/mios/trunk/modules/mios_wrapper/mios_wrapper.asm10-29-2008  12:57:15         PAGE 69


LOC  OBJECT CODE     LINE SOURCE TEXT
  VALUE
 
TMR1IE                            00000000
TMR1IF                            00000000
TMR1IP                            00000000
TMR1L                             00000FCE
TMR1ON                            00000000
TMR2                              00000FCC
TMR2IE                            00000001
TMR2IF                            00000001
TMR2IP                            00000001
TMR2ON                            00000002
TMR3CS                            00000001
TMR3H                             00000FB3
TMR3IE                            00000001
TMR3IF                            00000001
TMR3IP                            00000001
TMR3L                             00000FB2
TMR3ON                            00000000
TO                                00000003
TOSH                              00000FFE
TOSL                              00000FFD
TOSU                              00000FFF
TOUTPS0                           00000003
TOUTPS1                           00000004
TOUTPS2                           00000005
TOUTPS3                           00000006
TRISA                             00000F92
TRISB                             00000F93
TRISC                             00000F94
TRISD                             00000F95
TRISE                             00000F96
TRISE0                            00000000
TRISE1                            00000001
TRISE2                            00000002
TRMT                              00000001
TX                                00000006
TX8_9                             00000006
TX9                               00000006
TX9D                              00000000
TXD8                              00000000
TXEN                              00000005
TXIE                              00000004
TXIF                              00000004
TXIP                              00000004
TXREG                             00000FAD
TXSTA                             00000FAC
UA                                00000001
USER_AIN_NotifyChange             000000F8
USER_DIN_NotifyToggle             0000009C
USER_DISPLAY_Init                 00000038
USER_DISPLAY_Tick                 00000044
USER_ENC_NotifyChange             000000AC
USER_Init                         00000000
USER_LCD_Clear                    00000000
USER_LCD_Cmd                      00000000
gpasm-0.13.4 beta               /home/this/mios/trunk/modules/mios_wrapper/mios_wrapper.asm10-29-2008  12:57:15         PAGE 70


LOC  OBJECT CODE     LINE SOURCE TEXT
  VALUE
 
USER_LCD_CursorSet                00000000
USER_LCD_Data                     00000000
USER_LCD_Init                     00000000
USER_LCD_PrintChar                00000000
USER_LCD_SpecialCharInit          00000000
USER_MIDI_NotifyRx                0000009A
USER_MIDI_NotifyTx                00000098
USER_MPROC_DebugTrigger           00000036
USER_MPROC_NotifyFoundEvent       00000066
USER_MPROC_NotifyReceivedByte     0000008C
USER_MPROC_NotifyReceivedEvent    00000050
USER_MPROC_NotifyTimeout          00000080
USER_RESERVED_25                  00003060
USER_RESERVED_26                  00003064
USER_RESERVED_27                  00003068
USER_RESERVED_28                  0000306C
USER_RESERVED_29                  00003070
USER_RESERVED_30                  00003074
USER_RESERVED_31                  00003078
USER_RESERVED_32                  0000307C
USER_SR_Service_Finish            000000DA
USER_SR_Service_Prepare           000000BC
USER_Tick                         0000000C
USER_Timer                        00000018
VREFM                             00000002
VREFP                             00000003
W                                 00000000
WCOL                              00000007
WDTCON                            00000FD1
WR                                00000001
WREG                              00000FE8
WREN                              00000002
WRERR                             00000003
Z                                 00000002
_AIN_NotifyChange                 00000000
_BORV_20_2L                       000000FF
_BORV_27_2L                       000000FB
_BORV_42_2L                       000000F7
_BORV_45_2L                       000000F3
_BOR_OFF_2L                       000000FD
_BOR_ON_2L                        000000FF
_CCP2MX_OFF_3H                    000000FE
_CCP2MX_ON_3H                     000000FF
_CONFIG1H                         00300001
_CONFIG1L                         00300000
_CONFIG2H                         00300003
_CONFIG2L                         00300002
_CONFIG3H                         00300005
_CONFIG3L                         00300004
_CONFIG4H                         00300007
_CONFIG4L                         00300006
_CONFIG5H                         00300009
_CONFIG5L                         00300008
_CONFIG6H                         0030000B
gpasm-0.13.4 beta               /home/this/mios/trunk/modules/mios_wrapper/mios_wrapper.asm10-29-2008  12:57:15         PAGE 71


LOC  OBJECT CODE     LINE SOURCE TEXT
  VALUE
 
_CONFIG6L                         0030000A
_CONFIG7H                         0030000D
_CONFIG7L                         0030000C
_CP0_OFF_5L                       000000FF
_CP0_ON_5L                        000000FE
_CP1_OFF_5L                       000000FF
_CP1_ON_5L                        000000FD
_CP2_OFF_5L                       000000FF
_CP2_ON_5L                        000000FB
_CP3_OFF_5L                       000000FF
_CP3_ON_5L                        000000F7
_CPB_OFF_5H                       000000FF
_CPB_ON_5H                        000000BF
_CPD_OFF_5H                       000000FF
_CPD_ON_5H                        0000007F
_DEBUG_OFF_4L                     000000FF
_DEBUG_ON_4L                      0000007F
_DEVID1                           003FFFFE
_DEVID2                           003FFFFF
_DIN_NotifyToggle                 00000000
_DISPLAY_Init                     00000000
_DISPLAY_Tick                     00000000
_EBTR0_OFF_7L                     000000FF
_EBTR0_ON_7L                      000000FE
_EBTR1_OFF_7L                     000000FF
_EBTR1_ON_7L                      000000FD
_EBTR2_OFF_7L                     000000FF
_EBTR2_ON_7L                      000000FB
_EBTR3_OFF_7L                     000000FF
_EBTR3_ON_7L                      000000F7
_EBTRB_OFF_7H                     000000FF
_EBTRB_ON_7H                      000000BF
_ECIO_OSC_1H                      000000FD
_EC_OSC_1H                        000000FC
_ENC_NotifyChange                 00000000
_HSPLL_OSC_1H                     000000FE
_HS_OSC_1H                        000000FA
_IDLOC0                           00200000
_IDLOC1                           00200001
_IDLOC2                           00200002
_IDLOC3                           00200003
_IDLOC4                           00200004
_IDLOC5                           00200005
_IDLOC6                           00200006
_IDLOC7                           00200007
_IRQ_TMP1                         0000000B
_IRQ_TMP2                         0000000C
_IRQ_TMP3                         0000000D
_IRQ_TMP4                         0000000E
_IRQ_TMP5                         0000000F
_Init                             00000000
_LP_OSC_1H                        000000F8
_LVP_OFF_4L                       000000FB
_LVP_ON_4L                        000000FF
gpasm-0.13.4 beta               /home/this/mios/trunk/modules/mios_wrapper/mios_wrapper.asm10-29-2008  12:57:15         PAGE 72


LOC  OBJECT CODE     LINE SOURCE TEXT
  VALUE
 
_MIOS_AIN_DeadbandGet             00002C5C
_MIOS_AIN_DeadbandSet             00002C60
_MIOS_AIN_DynamicPrioGet          00002DD4
_MIOS_AIN_DynamicPrioSet          00002DD0
_MIOS_AIN_LastPinsGet             00002DD8
_MIOS_AIN_Muxed                   00002C64
_MIOS_AIN_NumberGet               00002C68
_MIOS_AIN_NumberSet               00002C6C
_MIOS_AIN_Pin7bitGet              00002C70
_MIOS_AIN_PinGet                  00000000
_MIOS_AIN_PinLSBGet               00002C78
_MIOS_AIN_PinMSBGet               00002C7C
_MIOS_AIN_UnMuxed                 00002C80
_MIOS_BANKSTICK_CtrlGet           00002DE0
_MIOS_BANKSTICK_CtrlSet           00002DDC
_MIOS_BANKSTICK_Read              00000000
_MIOS_BANKSTICK_ReadPage          00000000
_MIOS_BANKSTICK_Write             00000000
_MIOS_BANKSTICK_WritePage         00000000
_MIOS_BOX_CFG0                    00000000
_MIOS_BOX_CFG1                    00000001
_MIOS_BOX_STAT                    00000002
_MIOS_CLCD_SpecialCharInit        00000000
_MIOS_CLCD_SpecialCharsInit       00000000
_MIOS_DIN_PinAutoRepeatDisable    00002DC0
_MIOS_DIN_PinAutoRepeatEnable     00002DBC
_MIOS_DIN_PinAutoRepeatGet        00002DC4
_MIOS_DIN_PinGet                  00002CB4
_MIOS_DIN_SRGet                   00002CB8
_MIOS_DOUT_PinGet                 00002CBC
_MIOS_DOUT_PinSet                 00000000
_MIOS_DOUT_PinSet0                00002CC4
_MIOS_DOUT_PinSet1                00002CC8
_MIOS_DOUT_SRGet                  00002CCC
_MIOS_DOUT_SRSet                  00000000
_MIOS_Delay                       00002D9C
_MIOS_EEPROM_Read                 00000000
_MIOS_EEPROM_ReadPage             00000000
_MIOS_EEPROM_Write                00000000
_MIOS_EEPROM_WritePage            00000000
_MIOS_ENC_Abs7bitAdd              00000000
_MIOS_ENC_Abs7bitGet              00002CD8
_MIOS_ENC_Abs7bitSet              00000000
_MIOS_ENC_NumberGet               00002CE0
_MIOS_ENC_PIN_TABLE               00003280
_MIOS_ENC_SpeedGet                00000000
_MIOS_ENC_SpeedSet                00000000
_MIOS_FLASH_Read                  00000000
_MIOS_FLASH_Write                 00000000
_MIOS_GLCD_FontInit               00000000
_MIOS_GLCD_GCursorGet             00002D58
_MIOS_GLCD_GCursorSet             00000000
_MIOS_GPCounterGet                00002DA0
_MIOS_HLP_16bitAddSaturate        00000000
gpasm-0.13.4 beta               /home/this/mios/trunk/modules/mios_wrapper/mios_wrapper.asm10-29-2008  12:57:15         PAGE 73


LOC  OBJECT CODE     LINE SOURCE TEXT
  VALUE
 
_MIOS_HLP_Dec2BCD                 00000000
_MIOS_HLP_GetBitANDMask           00002D88
_MIOS_HLP_GetBitORMask            00002D8C
_MIOS_IIC_AckSend                 00002E14
_MIOS_IIC_ByteReceive             00002E10
_MIOS_IIC_ByteSend                00002E0C
_MIOS_IIC_CtrlGet                 00002E20
_MIOS_IIC_CtrlSet                 00002E1C
_MIOS_IIC_NakSend                 00002E18
_MIOS_IIC_Start                   00002E04
_MIOS_IIC_Stop                    00002E08
_MIOS_LCD_Clear                   00002D04
_MIOS_LCD_Cmd                     00002D08
_MIOS_LCD_CursorGet               00002D0C
_MIOS_LCD_CursorSet               00002D10
_MIOS_LCD_Data                    00002D14
_MIOS_LCD_Init                    00002D18
_MIOS_LCD_MessageStart            00002DF4
_MIOS_LCD_MessageStop             00002DF8
_MIOS_LCD_PrintBCD1               00002D1C
_MIOS_LCD_PrintBCD2               00002D20
_MIOS_LCD_PrintBCD3               00002D24
_MIOS_LCD_PrintBCD4               00000000
_MIOS_LCD_PrintBCD5               00000000
_MIOS_LCD_PrintCString            00000000
_MIOS_LCD_PrintCStringLoop_Code   00000012
_MIOS_LCD_PrintCStringLoop_RAM    00000030
_MIOS_LCD_PrintCString_Code       00000010
_MIOS_LCD_PrintCString_Code_End   0000001E
_MIOS_LCD_PrintCString_RAM        00000020
_MIOS_LCD_PrintCString_RAM_End    0000003A
_MIOS_LCD_PrintChar               00002D28
_MIOS_LCD_PrintHex1               00002D2C
_MIOS_LCD_PrintHex2               00002D30
_MIOS_LCD_PrintMessage            00000000
_MIOS_LCD_PrintPreconfString      00000000
_MIOS_LCD_PrintString             00000000
_MIOS_LCD_TypeAutoSet             00002D40
_MIOS_LCD_TypeGet                 00002D44
_MIOS_LCD_TypeSet                 00000000
_MIOS_LCD_YAddressGet             00000000
_MIOS_LCD_YAddressSet             00000000
_MIOS_MF_DeadbandGet              00002C94
_MIOS_MF_DeadbandSet              00002C98
_MIOS_MF_Disable                  00002C9C
_MIOS_MF_Enable                   00002CA0
_MIOS_MF_FaderMove                00000000
_MIOS_MF_PWM_DutyCycleDownGet     00002C84
_MIOS_MF_PWM_DutyCycleDownSet     00002C88
_MIOS_MF_PWM_DutyCycleUpGet       00002C8C
_MIOS_MF_PWM_DutyCycleUpSet       00002C90
_MIOS_MF_PWM_PeriodGet            00002DFC
_MIOS_MF_PWM_PeriodSet            00002E00
_MIOS_MF_SuspendDisable           00002CA8
gpasm-0.13.4 beta               /home/this/mios/trunk/modules/mios_wrapper/mios_wrapper.asm10-29-2008  12:57:15         PAGE 74


LOC  OBJECT CODE     LINE SOURCE TEXT
  VALUE
 
_MIOS_MF_SuspendEnable            00002CAC
_MIOS_MF_SuspendGet               00002CB0
_MIOS_MF_TouchDetectionReset      00002E2C
_MIOS_MIDI_BeginStream            00002C00
_MIOS_MIDI_DeviceIDAutoSet        00002C04
_MIOS_MIDI_DeviceIDGet            00002C08
_MIOS_MIDI_DeviceIDSet            00002C0C
_MIOS_MIDI_EndStream              00002C10
_MIOS_MIDI_Init                   00002C14
_MIOS_MIDI_InterfaceAutoSet       00002C18
_MIOS_MIDI_InterfaceGet           00002C1C
_MIOS_MIDI_InterfaceSet           00002C20
_MIOS_MIDI_MergerGet              00002C24
_MIOS_MIDI_MergerSet              00002C28
_MIOS_MIDI_RxBufferFree           00002C2C
_MIOS_MIDI_RxBufferGet            00002C30
_MIOS_MIDI_RxBufferPut            00002C34
_MIOS_MIDI_RxBufferUsed           00002C38
_MIOS_MIDI_TxBufferFlush          00002C3C
_MIOS_MIDI_TxBufferFree           00002C40
_MIOS_MIDI_TxBufferGet            00002C44
_MIOS_MIDI_TxBufferPut            00002C48
_MIOS_MIDI_TxBufferUsed           00002C4C
_MIOS_MPROC_EVENT_TABLE           00003080
_MIOS_MPROC_MergerDisable         00002C50
_MIOS_MPROC_MergerEnable          00002C54
_MIOS_MPROC_MergerGet             00002C58
_MIOS_PARAMETER1                  00000003
_MIOS_PARAMETER2                  00000004
_MIOS_PARAMETER3                  00000005
_MIOS_Reset                       00002DA4
_MIOS_SRIO_DebounceGet            00002E28
_MIOS_SRIO_DebounceSet            00002E24
_MIOS_SRIO_NumberGet              00002CEC
_MIOS_SRIO_NumberSet              00002CF0
_MIOS_SRIO_TS_SensitivityGet      00002CF4
_MIOS_SRIO_TS_SensitivitySet      00002CF8
_MIOS_SRIO_UpdateFrqGet           00002CFC
_MIOS_SRIO_UpdateFrqSet           00002D00
_MIOS_SystemResume                00002DA8
_MIOS_SystemSuspend               00002DAC
_MIOS_TIMER_Init                  00000000
_MIOS_TIMER_ReInit                00000000
_MIOS_TIMER_Start                 00002D7C
_MIOS_TIMER_Stop                  00002D80
_MIOS_UserResume                  00002DB0
_MIOS_UserSuspend                 00002DB4
_MPROC_NotifyFoundEvent           00000000
_MPROC_NotifyReceivedByte         00000000
_MPROC_NotifyReceivedEvnt         00000000
_MPROC_NotifyTimeout              00000000
_OSCS_OFF_1H                      000000FF
_OSCS_ON_1H                       000000DF
_PWRT_OFF_2L                      000000FF
gpasm-0.13.4 beta               /home/this/mios/trunk/modules/mios_wrapper/mios_wrapper.asm10-29-2008  12:57:15         PAGE 75


LOC  OBJECT CODE     LINE SOURCE TEXT
  VALUE
 
_PWRT_ON_2L                       000000FE
_RCIO_OSC_1H                      000000FF
_RC_OSC_1H                        000000FB
_SR_Service_Finish                00000000
_SR_Service_Prepare               00000000
_STVR_OFF_4L                      000000FE
_STVR_ON_4L                       000000FF
_TMP1                             00000006
_TMP2                             00000007
_TMP3                             00000008
_TMP4                             00000009
_TMP5                             0000000A
_Tick                             00000000
_Timer                            00000000
_USER_AIN_NotifyChange            00003028
_USER_DIN_NotifyToggle            00003020
_USER_DISPLAY_Init                00003010
_USER_DISPLAY_Tick                00003014
_USER_ENC_NotifyChange            00003024
_USER_LCD_Clear                   00003040
_USER_LCD_Cmd                     00003058
_USER_LCD_CursorSet               00003044
_USER_LCD_Data                    00003054
_USER_LCD_Init                    0000303C
_USER_LCD_PrintChar               00003048
_USER_LCD_SpecialCharInit         0000305C
_USER_MIDI_NotifyRx               0000304C
_USER_MIDI_NotifyTx               00003050
_USER_MPROC_DebugTrigger          0000300C
_USER_MPROC_NotifyFoundEvent      00003038
_USER_MPROC_NotifyReceivedByte    0000302C
_USER_MPROC_NotifyReceivedEvent   00003034
_USER_MPROC_NotifyTimeout         00003030
_USER_SR_Service_Finish           0000301C
_USER_SR_Service_Prepare          00003018
_USER_Tick                        00003004
_USER_Timer                       00003008
_User_Init                        00003000
_WDTPS_128_2H                     000000FF
_WDTPS_16_2H                      000000F9
_WDTPS_1_2H                       000000F1
_WDTPS_2_2H                       000000F3
_WDTPS_32_2H                      000000FB
_WDTPS_4_2H                       000000F5
_WDTPS_64_2H                      000000FD
_WDTPS_8_2H                       000000F7
_WDT_OFF_2H                       000000FE
_WDT_ON_2H                        000000FF
_WRT0_OFF_6L                      000000FF
_WRT0_ON_6L                       000000FE
_WRT1_OFF_6L                      000000FF
_WRT1_ON_6L                       000000FD
_WRT2_OFF_6L                      000000FF
_WRT2_ON_6L                       000000FB
gpasm-0.13.4 beta               /home/this/mios/trunk/modules/mios_wrapper/mios_wrapper.asm10-29-2008  12:57:15         PAGE 76


LOC  OBJECT CODE     LINE SOURCE TEXT
  VALUE
 
_WRT3_OFF_6L                      000000FF
_WRT3_ON_6L                       000000F7
_WRTB_OFF_6H                      000000FF
_WRTB_ON_6H                       000000BF
_WRTC_OFF_6H                      000000FF
_WRTC_ON_6H                       000000DF
_WRTD_OFF_6H                      000000FF
_WRTD_ON_6H                       0000007F
_XT_OSC_1H                        000000F9
__18F452                          00000001
DDRA                              TRISA          
DDRB                              TRISB          
DDRC                              TRISC          
DDRD                              TRISD          
DDRE                              TRISE          
PARAMETER_PASSING_TEST            0
PIC_DERIVATIVE_CMCON_INIT         0
PIC_DERIVATIVE_CODE_SIZE          0x08000
PIC_DERIVATIVE_EEPROM_SIZE        0x100
PIC_DERIVATIVE_IRQ_WORKAROUND     0
PIC_DERIVATIVE_NEW_ADC            0
PIC_DERIVATIVE_RAM_SIZE           0x600
PIC_DERIVATIVE_SET_LCD_4BIT       0
PIC_DERIVATIVE_T08BIT_INVERTED    0
_HW_FLAGS_H                       


Errors   :       0
Warnings :       0 reported,       0 suppressed
Messages :       0 reported,       0 suppressed

